ARM GAS  C:\Users\keva419\AppData\Local\Temp\cc1yIsQR.s 			page 1


   1              		.syntax unified
   2              		.cpu cortex-m3
   3              		.fpu softvfp
   4              		.eabi_attribute 20, 1
   5              		.eabi_attribute 21, 1
   6              		.eabi_attribute 23, 3
   7              		.eabi_attribute 24, 1
   8              		.eabi_attribute 25, 1
   9              		.eabi_attribute 26, 1
  10              		.eabi_attribute 30, 6
  11              		.eabi_attribute 34, 1
  12              		.eabi_attribute 18, 4
  13              		.thumb
  14              		.file	"main.c"
  15              		.text
  16              	.Ltext0:
  17              		.cfi_sections	.debug_frame
  18              		.global	ts
  19              		.bss
  20              		.type	ts, %object
  21              		.size	ts, 1
  22              	ts:
  23 0000 00       		.space	1
  24              		.global	ts_enc
  25 0001 00       		.align	1
  26              		.type	ts_enc, %object
  27              		.size	ts_enc, 2
  28              	ts_enc:
  29 0002 0000     		.space	2
  30              		.global	ts_update
  31              		.align	1
  32              		.type	ts_update, %object
  33              		.size	ts_update, 2
  34              	ts_update:
  35 0004 0000     		.space	2
  36              		.global	ts_speed
  37              		.align	1
  38              		.type	ts_speed, %object
  39              		.size	ts_speed, 2
  40              	ts_speed:
  41 0006 0000     		.space	2
  42              		.global	ts_display
  43              		.align	1
  44              		.type	ts_display, %object
  45              		.size	ts_display, 2
  46              	ts_display:
  47 0008 0000     		.space	2
  48              		.global	flag_ts_enc
  49              		.type	flag_ts_enc, %object
  50              		.size	flag_ts_enc, 1
  51              	flag_ts_enc:
  52 000a 00       		.space	1
  53              		.global	flag_ts_update
  54              		.type	flag_ts_update, %object
  55              		.size	flag_ts_update, 1
  56              	flag_ts_update:
  57 000b 00       		.space	1
ARM GAS  C:\Users\keva419\AppData\Local\Temp\cc1yIsQR.s 			page 2


  58              		.global	flag_ts_speed
  59              		.type	flag_ts_speed, %object
  60              		.size	flag_ts_speed, 1
  61              	flag_ts_speed:
  62 000c 00       		.space	1
  63              		.global	flag_ts_display
  64              		.type	flag_ts_display, %object
  65              		.size	flag_ts_display, 1
  66              	flag_ts_display:
  67 000d 00       		.space	1
  68              		.global	flag_rx
  69              		.type	flag_rx, %object
  70              		.size	flag_rx, 1
  71              	flag_rx:
  72 000e 00       		.space	1
  73              		.global	flag_packet
  74              		.type	flag_packet, %object
  75              		.size	flag_packet, 1
  76              	flag_packet:
  77 000f 00       		.space	1
  78              		.global	flag_KB_string
  79              		.type	flag_KB_string, %object
  80              		.size	flag_KB_string, 1
  81              	flag_KB_string:
  82 0010 00       		.space	1
  83              		.global	dataready_flag
  84              		.type	dataready_flag, %object
  85              		.size	dataready_flag, 1
  86              	dataready_flag:
  87 0011 00       		.space	1
  88              		.global	flag_rf_transmission_active
  89              		.data
  90              		.type	flag_rf_transmission_active, %object
  91              		.size	flag_rf_transmission_active, 1
  92              	flag_rf_transmission_active:
  93 0000 0A       		.byte	10
  94              		.global	displaystring
  95 0001 000000   		.align	2
  96              		.type	displaystring, %object
  97              		.size	displaystring, 64
  98              	displaystring:
  99 0004 43533330 		.ascii	"CS301 2020\012\000"
  99      31203230 
  99      32300A00 
 100 0010 00000000 		.space	52
 100      00000000 
 100      00000000 
 100      00000000 
 100      00000000 
 101              		.comm	line,64,4
 102              		.comm	entry,64,4
 103              		.comm	usbBuffer,64,4
 104              		.comm	system_state,32,4
 105              		.global	sensor_readings
 106              		.bss
 107 0012 0000     		.align	2
 108              		.type	sensor_readings, %object
ARM GAS  C:\Users\keva419\AppData\Local\Temp\cc1yIsQR.s 			page 3


 109              		.size	sensor_readings, 6
 110              	sensor_readings:
 111 0014 00000000 		.space	6
 111      0000
 112              		.global	adc_flag
 113 001a 0000     		.align	2
 114              		.type	adc_flag, %object
 115              		.size	adc_flag, 4
 116              	adc_flag:
 117 001c 00000000 		.space	4
 118              		.global	adc_readings
 119              		.align	2
 120              		.type	adc_readings, %object
 121              		.size	adc_readings, 24
 122              	adc_readings:
 123 0020 00000000 		.space	24
 123      00000000 
 123      00000000 
 123      00000000 
 123      00000000 
 124              		.global	sample_count
 125              		.align	2
 126              		.type	sample_count, %object
 127              		.size	sample_count, 4
 128              	sample_count:
 129 0038 00000000 		.space	4
 130              		.global	countM1
 131              		.align	2
 132              		.type	countM1, %object
 133              		.size	countM1, 4
 134              	countM1:
 135 003c 00000000 		.space	4
 136              		.global	countM2
 137              		.align	2
 138              		.type	countM2, %object
 139              		.size	countM2, 4
 140              	countM2:
 141 0040 00000000 		.space	4
 142              		.global	timer_flag
 143              		.align	2
 144              		.type	timer_flag, %object
 145              		.size	timer_flag, 4
 146              	timer_flag:
 147 0044 00000000 		.space	4
 148              		.section	.text.ENCODER_ISR,"ax",%progbits
 149              		.align	2
 150              		.global	ENCODER_ISR
 151              		.thumb
 152              		.thumb_func
 153              		.type	ENCODER_ISR, %function
 154              	ENCODER_ISR:
 155              	.LFB63:
 156              		.file 1 ".\\main.c"
   1:.\main.c      **** /* ========================================
   2:.\main.c      ****  * Copyright Univ of Auckland, 2016
   3:.\main.c      ****  * All Rights Reserved
   4:.\main.c      ****  * UNPUBLISHED, LICENSED SOFTWARE.
ARM GAS  C:\Users\keva419\AppData\Local\Temp\cc1yIsQR.s 			page 4


   5:.\main.c      ****  *
   6:.\main.c      ****  * CONFIDENTIAL AND PROPRIETARY INFORMATION
   7:.\main.c      ****  * WHICH IS THE PROPERTY OF Univ of Auckland.
   8:.\main.c      ****  *
   9:.\main.c      ****  * ================== INCLUDE ======================
  10:.\main.c      **** */
  11:.\main.c      **** #include <stdio.h>
  12:.\main.c      **** #include <string.h>
  13:.\main.c      **** #include <stdlib.h>
  14:.\main.c      **** #include <project.h>
  15:.\main.c      **** 
  16:.\main.c      **** #include "defines.h"
  17:.\main.c      **** #include "vars.h"
  18:.\main.c      **** //* =================== MACROS =====================
  19:.\main.c      **** // SENSOR MAPPINGS
  20:.\main.c      **** #define TOP_LEFT_SENSOR 0
  21:.\main.c      **** #define TOP_MID_SENSOR 1
  22:.\main.c      **** #define TOP_RIGHT_SENSOR 2
  23:.\main.c      **** #define BOTTOM_LEFT_SENSOR 3
  24:.\main.c      **** #define BOTTOM_MID_SENSOR 4
  25:.\main.c      **** #define BOTTOM_RIGHT_SENSOR 5
  26:.\main.c      **** 
  27:.\main.c      **** // LIGHT SENSORS
  28:.\main.c      **** #define NUM_SENSORS 6
  29:.\main.c      **** #define LIGHT_LEVEL 300
  30:.\main.c      **** 
  31:.\main.c      **** // ADC stuff
  32:.\main.c      **** #define ADC_READINGS_SIZE 90
  33:.\main.c      **** 
  34:.\main.c      **** // Speed calculations
  35:.\main.c      **** #define LINEAR_DISTANCE_PER_REV 20.42035225
  36:.\main.c      **** #define TICKS_PER_REV 228
  37:.\main.c      **** #define TIMER_PERIOD 0.03
  38:.\main.c      **** 
  39:.\main.c      **** // Speed control
  40:.\main.c      **** #define DESIRED_COUNT 8
  41:.\main.c      **** #define TURN_SPEED 450
  42:.\main.c      **** #define MIN_PWM_VAL 250
  43:.\main.c      **** 
  44:.\main.c      **** // Straight line test
  45:.\main.c      **** #define CM_BETWEEN_COORDS 24
  46:.\main.c      **** 
  47:.\main.c      **** // 90 degree turn - TODO: Calculate true values
  48:.\main.c      **** #define TICKS_FOR_TURN 190
  49:.\main.c      **** #define TURN_PWM_VAL 225
  50:.\main.c      **** 
  51:.\main.c      **** // Line following macros - require calibration
  52:.\main.c      **** #define ADJUST_SPEED_LARGE 3
  53:.\main.c      **** #define ADJUST_SPEED_SMALL 1
  54:.\main.c      **** #define MAX_SPEED 9
  55:.\main.c      **** #define MIN_SPEED 4
  56:.\main.c      **** #define SLOW_DOWN_SPEED 1
  57:.\main.c      **** 
  58:.\main.c      **** // Debug flag - uncomment when debugging
  59:.\main.c      **** //#define PUTTY
  60:.\main.c      **** #define PRINT_RATE 0x8000
  61:.\main.c      **** //* ================= TPYE DEF =======================
ARM GAS  C:\Users\keva419\AppData\Local\Temp\cc1yIsQR.s 			page 5


  62:.\main.c      **** //typedef struct wheel_speed{
  63:.\main.c      **** //    float m1;
  64:.\main.c      **** //    float m2;
  65:.\main.c      **** //} speed;
  66:.\main.c      **** typedef enum robot_state{
  67:.\main.c      ****     CORRECT,
  68:.\main.c      ****     SLIGHTLY_RIGHT,
  69:.\main.c      ****     SLIGHTLY_LEFT,
  70:.\main.c      ****     MEDIUM_RIGHT,
  71:.\main.c      ****     MEDIUM_LEFT,
  72:.\main.c      ****     TURN_RIGHT,
  73:.\main.c      ****     TURN_LEFT,
  74:.\main.c      ****     SLOW,
  75:.\main.c      ****     PASS
  76:.\main.c      **** } robot_state;
  77:.\main.c      **** //* ================= FUNCTIONS =======================
  78:.\main.c      **** void usbPutString(char *s);
  79:.\main.c      **** int getMax(int * readings);
  80:.\main.c      **** 
  81:.\main.c      **** int32 getValForChannel(int16 n);
  82:.\main.c      **** void updateSensorValues();
  83:.\main.c      **** 
  84:.\main.c      **** //speed getSpeed();
  85:.\main.c      **** float getDistance(int prevCountM1, int prevCountM2);
  86:.\main.c      **** void turnRight();
  87:.\main.c      **** void turnLeft();
  88:.\main.c      **** void sharpTurnRight(int *right_wheel_count, int *left_wheel_count);
  89:.\main.c      **** void sharpTurnLeft(int *right_wheel_count, int *left_wheel_count);
  90:.\main.c      **** int8 performTurn(int isLeft);
  91:.\main.c      **** 
  92:.\main.c      **** void goStraight(int desired_distance, int *right_speed_count, int *left_wheel_count);
  93:.\main.c      **** void changeRightWheelSpeed(int amount);
  94:.\main.c      **** void changeLeftWheelSpeed(int amount);
  95:.\main.c      **** void invertWheels();
  96:.\main.c      **** void setWheelDirection(int isLeftForward, int isRightForward);
  97:.\main.c      **** void correctSpeed(int prevCount, int count, int desired_count, int isLeftWheel);
  98:.\main.c      **** 
  99:.\main.c      **** float resetDecoderCount(float sum);
 100:.\main.c      **** //* ================= GLOBAL VARIABLES =======================
 101:.\main.c      **** // ADC
 102:.\main.c      **** int8 sensor_readings[NUM_SENSORS] = { 0 };
 103:.\main.c      **** volatile int adc_flag = FALSE;
 104:.\main.c      **** int adc_readings[NUM_SENSORS] = { 0 };
 105:.\main.c      **** int sample_count = 0;
 106:.\main.c      **** // Encoder
 107:.\main.c      **** volatile int countM1 = 0;
 108:.\main.c      **** volatile int countM2 = 0;
 109:.\main.c      **** volatile int timer_flag = FALSE;
 110:.\main.c      **** //* ================== ISR ======================
 111:.\main.c      **** CY_ISR(ENCODER_ISR) {
 157              		.loc 1 111 0
 158              		.cfi_startproc
 159              		@ args = 0, pretend = 0, frame = 0
 160              		@ frame_needed = 1, uses_anonymous_args = 0
 161 0000 80B5     		push	{r7, lr}
 162              		.cfi_def_cfa_offset 8
 163              		.cfi_offset 7, -8
ARM GAS  C:\Users\keva419\AppData\Local\Temp\cc1yIsQR.s 			page 6


 164              		.cfi_offset 14, -4
 165 0002 00AF     		add	r7, sp, #0
 166              		.cfi_def_cfa_register 7
 112:.\main.c      ****     countM1 = QuadDec_M1_GetCounter();
 167              		.loc 1 112 0
 168 0004 FFF7FEFF 		bl	QuadDec_M1_GetCounter
 169 0008 0346     		mov	r3, r0
 170 000a 1A46     		mov	r2, r3
 171 000c 054B     		ldr	r3, .L2
 172 000e 1A60     		str	r2, [r3]
 113:.\main.c      ****     countM2 = QuadDec_M2_GetCounter();
 173              		.loc 1 113 0
 174 0010 FFF7FEFF 		bl	QuadDec_M2_GetCounter
 175 0014 0346     		mov	r3, r0
 176 0016 1A46     		mov	r2, r3
 177 0018 034B     		ldr	r3, .L2+4
 178 001a 1A60     		str	r2, [r3]
 114:.\main.c      ****     timer_flag = TRUE;
 179              		.loc 1 114 0
 180 001c 034B     		ldr	r3, .L2+8
 181 001e 0122     		movs	r2, #1
 182 0020 1A60     		str	r2, [r3]
 115:.\main.c      **** }
 183              		.loc 1 115 0
 184 0022 80BD     		pop	{r7, pc}
 185              	.L3:
 186              		.align	2
 187              	.L2:
 188 0024 00000000 		.word	countM1
 189 0028 00000000 		.word	countM2
 190 002c 00000000 		.word	timer_flag
 191              		.cfi_endproc
 192              	.LFE63:
 193              		.size	ENCODER_ISR, .-ENCODER_ISR
 194              		.section	.text.ADC_ISR,"ax",%progbits
 195              		.align	2
 196              		.global	ADC_ISR
 197              		.thumb
 198              		.thumb_func
 199              		.type	ADC_ISR, %function
 200              	ADC_ISR:
 201              	.LFB64:
 116:.\main.c      **** 
 117:.\main.c      **** /* ### Retrieve and Store Measurements ### */
 118:.\main.c      **** CY_ISR(ADC_ISR) {
 202              		.loc 1 118 0
 203              		.cfi_startproc
 204              		@ args = 0, pretend = 0, frame = 0
 205              		@ frame_needed = 1, uses_anonymous_args = 0
 206              		@ link register save eliminated.
 207 0000 80B4     		push	{r7}
 208              		.cfi_def_cfa_offset 4
 209              		.cfi_offset 7, -4
 210 0002 00AF     		add	r7, sp, #0
 211              		.cfi_def_cfa_register 7
 119:.\main.c      ****     adc_flag = TRUE;
 212              		.loc 1 119 0
ARM GAS  C:\Users\keva419\AppData\Local\Temp\cc1yIsQR.s 			page 7


 213 0004 034B     		ldr	r3, .L5
 214 0006 0122     		movs	r2, #1
 215 0008 1A60     		str	r2, [r3]
 120:.\main.c      **** }
 216              		.loc 1 120 0
 217 000a BD46     		mov	sp, r7
 218              		.cfi_def_cfa_register 13
 219              		@ sp needed
 220 000c 5DF8047B 		ldr	r7, [sp], #4
 221              		.cfi_restore 7
 222              		.cfi_def_cfa_offset 0
 223 0010 7047     		bx	lr
 224              	.L6:
 225 0012 00BF     		.align	2
 226              	.L5:
 227 0014 00000000 		.word	adc_flag
 228              		.cfi_endproc
 229              	.LFE64:
 230              		.size	ADC_ISR, .-ADC_ISR
 231              		.section	.text.main,"ax",%progbits
 232              		.align	2
 233              		.global	main
 234              		.thumb
 235              		.thumb_func
 236              		.type	main, %function
 237              	main:
 238              	.LFB65:
 121:.\main.c      **** 
 122:.\main.c      **** /** ## Notes
 123:.\main.c      ****     
 124:.\main.c      ****     Ratio of linear distance to quad decoder ticks
 125:.\main.c      ****     One revolution gives a linear distance (in cm)
 126:.\main.c      ****     Each revolution is 57 ticks (228 for 4x mode)
 127:.\main.c      ****     Centimetres per tick = linear distance / countM(1|2)
 128:.\main.c      ****     
 129:.\main.c      ****     Decoder use a 4x count, so each revolution gives 4 counts
 130:.\main.c      ****     Sampling rate is determined by our 100ms timer (might be a little slow)
 131:.\main.c      ****     
 132:.\main.c      ****     ## Algorithm Control Flow
 133:.\main.c      ****     - Get ADC value for each channel
 134:.\main.c      ****     - Get decoder val for M1 & M2
 135:.\main.c      ****     - Use these values to drive the movement of the robot
 136:.\main.c      ****     
 137:.\main.c      **** */
 138:.\main.c      **** 
 139:.\main.c      **** int main()
 140:.\main.c      **** {
 239              		.loc 1 140 0
 240              		.cfi_startproc
 241              		@ args = 0, pretend = 0, frame = 24
 242              		@ frame_needed = 1, uses_anonymous_args = 0
 243 0000 80B5     		push	{r7, lr}
 244              		.cfi_def_cfa_offset 8
 245              		.cfi_offset 7, -8
 246              		.cfi_offset 14, -4
 247 0002 86B0     		sub	sp, sp, #24
 248              		.cfi_def_cfa_offset 32
ARM GAS  C:\Users\keva419\AppData\Local\Temp\cc1yIsQR.s 			page 8


 249 0004 00AF     		add	r7, sp, #0
 250              		.cfi_def_cfa_register 7
 141:.\main.c      ****     // delay
 142:.\main.c      ****     CyDelay(2000);
 251              		.loc 1 142 0
 252 0006 4FF4FA60 		mov	r0, #2000
 253 000a FFF7FEFF 		bl	CyDelay
 143:.\main.c      ****     
 144:.\main.c      ****     // --------------------------------
 145:.\main.c      ****     // ----- INITIALIZATIONS ----------
 146:.\main.c      ****     // ========================================
 147:.\main.c      ****     CYGlobalIntEnable;
 254              		.loc 1 147 0
 255              	@ 147 ".\main.c" 1
 256 000e 62B6     		CPSIE   i
 257              	@ 0 "" 2
 148:.\main.c      ****     
 149:.\main.c      ****     // PWMs
 150:.\main.c      ****     PWM_1_Start();
 258              		.loc 1 150 0
 259              		.thumb
 260 0010 FFF7FEFF 		bl	PWM_1_Start
 151:.\main.c      ****     PWM_2_Start();
 261              		.loc 1 151 0
 262 0014 FFF7FEFF 		bl	PWM_2_Start
 152:.\main.c      ****     
 153:.\main.c      ****     // Timer for encoder
 154:.\main.c      ****     Timer_TS_Start();
 263              		.loc 1 154 0
 264 0018 FFF7FEFF 		bl	Timer_TS_Start
 155:.\main.c      ****     isr_TS_Start(); // Timer interrupts need to be started independently
 265              		.loc 1 155 0
 266 001c FFF7FEFF 		bl	isr_TS_Start
 156:.\main.c      ****     isr_TS_StartEx(ENCODER_ISR);
 267              		.loc 1 156 0
 268 0020 1948     		ldr	r0, .L8
 269 0022 FFF7FEFF 		bl	isr_TS_StartEx
 157:.\main.c      ****     
 158:.\main.c      ****     // Quad Decoders
 159:.\main.c      ****     QuadDec_M1_Start();
 270              		.loc 1 159 0
 271 0026 FFF7FEFF 		bl	QuadDec_M1_Start
 160:.\main.c      ****     QuadDec_M2_Start();
 272              		.loc 1 160 0
 273 002a FFF7FEFF 		bl	QuadDec_M2_Start
 161:.\main.c      ****     
 162:.\main.c      ****     // ADC
 163:.\main.c      ****     ADC_Start(); // Start ADC
 274              		.loc 1 163 0
 275 002e FFF7FEFF 		bl	ADC_Start
 164:.\main.c      ****     ADC_IRQ_Enable(); // Enable ADC interrupts
 276              		.loc 1 164 0
 277 0032 FFF7FEFF 		bl	ADC_IRQ_Enable
 165:.\main.c      ****     ADC_StartConvert(); // Start conversions
 278              		.loc 1 165 0
 279 0036 FFF7FEFF 		bl	ADC_StartConvert
 166:.\main.c      ****     isr_eoc_StartEx(ADC_ISR); // link interrupt for ADC
ARM GAS  C:\Users\keva419\AppData\Local\Temp\cc1yIsQR.s 			page 9


 280              		.loc 1 166 0
 281 003a 1448     		ldr	r0, .L8+4
 282 003c FFF7FEFF 		bl	isr_eoc_StartEx
 167:.\main.c      **** 
 168:.\main.c      ****     // ---------- USB SETUP ------------    
 169:.\main.c      ****     #ifdef USE_USB    
 170:.\main.c      ****         USBUART_Start(0, USBUART_5V_OPERATION);
 283              		.loc 1 170 0
 284 0040 0020     		movs	r0, #0
 285 0042 0121     		movs	r1, #1
 286 0044 FFF7FEFF 		bl	USBUART_Start
 171:.\main.c      ****     #endif            
 172:.\main.c      ****     
 173:.\main.c      ****     // To make sure wheels rotate in the same direction i.e. forward
 174:.\main.c      ****     INV2_Write(1);
 287              		.loc 1 174 0
 288 0048 0120     		movs	r0, #1
 289 004a FFF7FEFF 		bl	INV2_Write
 175:.\main.c      ****     
 176:.\main.c      ****     // Storing count values
 177:.\main.c      ****     int prevCountM1 = 0;
 290              		.loc 1 177 0
 291 004e 0023     		movs	r3, #0
 292 0050 7B61     		str	r3, [r7, #20]
 178:.\main.c      ****     int prevCountM2 = 0;
 293              		.loc 1 178 0
 294 0052 0023     		movs	r3, #0
 295 0054 3B61     		str	r3, [r7, #16]
 179:.\main.c      ****     int right_wheel_count = DESIRED_COUNT;
 296              		.loc 1 179 0
 297 0056 0823     		movs	r3, #8
 298 0058 7B60     		str	r3, [r7, #4]
 180:.\main.c      ****     int left_wheel_count = DESIRED_COUNT;
 299              		.loc 1 180 0
 300 005a 0823     		movs	r3, #8
 301 005c 3B60     		str	r3, [r7]
 181:.\main.c      ****     int polling_count = 0;
 302              		.loc 1 181 0
 303 005e 0023     		movs	r3, #0
 304 0060 FB60     		str	r3, [r7, #12]
 182:.\main.c      ****     
 183:.\main.c      ****     robot_state state;
 184:.\main.c      ****     robot_state prev_state = CORRECT;
 305              		.loc 1 184 0
 306 0062 0023     		movs	r3, #0
 307 0064 FB72     		strb	r3, [r7, #11]
 185:.\main.c      ****     
 186:.\main.c      ****     //goStraight(CM_BETWEEN_COORDS, &right_wheel_count, &left_wheel_count);
 187:.\main.c      ****     sharpTurnLeft(&right_wheel_count, &left_wheel_count);
 308              		.loc 1 187 0
 309 0066 3A1D     		adds	r2, r7, #4
 310 0068 3B46     		mov	r3, r7
 311 006a 1046     		mov	r0, r2
 312 006c 1946     		mov	r1, r3
 313 006e FFF7FEFF 		bl	sharpTurnLeft
 188:.\main.c      ****     PWM_1_WriteCompare(0);
 314              		.loc 1 188 0
ARM GAS  C:\Users\keva419\AppData\Local\Temp\cc1yIsQR.s 			page 10


 315 0072 0020     		movs	r0, #0
 316 0074 FFF7FEFF 		bl	PWM_1_WriteCompare
 189:.\main.c      ****     PWM_2_WriteCompare(0);
 317              		.loc 1 189 0
 318 0078 0020     		movs	r0, #0
 319 007a FFF7FEFF 		bl	PWM_2_WriteCompare
 190:.\main.c      ****     
 191:.\main.c      **** //    while(1) { // Begin main control
 192:.\main.c      **** //        polling_count++;
 193:.\main.c      **** //        
 194:.\main.c      **** //        if (adc_flag) {
 195:.\main.c      **** //            updateSensorValues();
 196:.\main.c      **** //            adc_flag = FALSE;
 197:.\main.c      **** //        }
 198:.\main.c      **** //        
 199:.\main.c      **** //         // New count values from encoder are ready
 200:.\main.c      **** //        if (timer_flag){
 201:.\main.c      **** //            isr_TS_Disable();
 202:.\main.c      **** //            
 203:.\main.c      **** //            // Correct speed
 204:.\main.c      **** //            correctSpeed(prevCountM1,countM1,left_wheel_count,TRUE);
 205:.\main.c      **** //            correctSpeed(prevCountM2,countM2,right_wheel_count,FALSE);
 206:.\main.c      **** //            
 207:.\main.c      **** //            // Update previous values
 208:.\main.c      **** //            prevCountM1 = countM1;
 209:.\main.c      **** //            prevCountM2 = countM2;
 210:.\main.c      **** //            
 211:.\main.c      **** //            // Reset flag
 212:.\main.c      **** //            timer_flag = FALSE;
 213:.\main.c      **** //            
 214:.\main.c      **** //            isr_TS_Enable();
 215:.\main.c      **** //        }
 216:.\main.c      **** //        
 217:.\main.c      **** //       // follow a line algorithm
 218:.\main.c      **** //        if (sensor_readings[TOP_MID_SENSOR]) { // on line
 219:.\main.c      **** //            if (!sensor_readings[TOP_LEFT_SENSOR] && sensor_readings[TOP_RIGHT_SENSOR]) {// Devia
 220:.\main.c      **** //                state = SLIGHTLY_RIGHT;
 221:.\main.c      **** //                right_wheel_count -= ADJUST_SPEED_SMALL;
 222:.\main.c      **** //                left_wheel_count += ADJUST_SPEED_SMALL;
 223:.\main.c      **** //            } else if (sensor_readings[TOP_LEFT_SENSOR] && !sensor_readings[TOP_RIGHT_SENSOR]) { 
 224:.\main.c      **** //                state = SLIGHTLY_LEFT;
 225:.\main.c      **** //                right_wheel_count += ADJUST_SPEED_SMALL;
 226:.\main.c      **** //                left_wheel_count -= ADJUST_SPEED_SMALL;
 227:.\main.c      **** //            } else { // Correct speed
 228:.\main.c      **** //                state = CORRECT;
 229:.\main.c      **** //            }
 230:.\main.c      **** //        } else { // moved off
 231:.\main.c      **** //            if (!sensor_readings[TOP_LEFT_SENSOR] && sensor_readings[TOP_RIGHT_SENSOR]) {// Devia
 232:.\main.c      **** //                state = MEDIUM_RIGHT;
 233:.\main.c      **** //                turnRight();
 234:.\main.c      **** //            } else if (sensor_readings[TOP_LEFT_SENSOR] && !sensor_readings[TOP_RIGHT_SENSOR]) {/
 235:.\main.c      **** //                state = MEDIUM_LEFT;
 236:.\main.c      **** //				turnLeft();
 237:.\main.c      **** //            // for corners
 238:.\main.c      **** //            } else if (!sensor_readings[TOP_LEFT_SENSOR] && !sensor_readings[TOP_RIGHT_SENSOR]) {
 239:.\main.c      **** //                if (sensor_readings[BOTTOM_LEFT_SENSOR]) {
 240:.\main.c      **** //                    state = TURN_LEFT;
ARM GAS  C:\Users\keva419\AppData\Local\Temp\cc1yIsQR.s 			page 11


 241:.\main.c      **** //                    sharpTurnLeft();
 242:.\main.c      **** //                } else if (sensor_readings[BOTTOM_RIGHT_SENSOR]) {
 243:.\main.c      **** //                    state = TURN_RIGHT;
 244:.\main.c      **** //                    sharpTurnRight();
 245:.\main.c      **** //                 // slow down in preperation for a sharp turn
 246:.\main.c      **** //                } else if (left_wheel_count > MIN_SPEED && right_wheel_count > MIN_SPEED) {
 247:.\main.c      **** //                    state = SLOW;
 248:.\main.c      **** //                    right_wheel_count -= SLOW_DOWN_SPEED;
 249:.\main.c      **** //                    left_wheel_count -= SLOW_DOWN_SPEED;
 250:.\main.c      **** //                } else {
 251:.\main.c      **** //                    state = PASS;
 252:.\main.c      **** //                }
 253:.\main.c      **** //            }
 254:.\main.c      **** //        }
 255:.\main.c      **** //        
 256:.\main.c      **** //        if (right_wheel_count > MAX_SPEED) {
 257:.\main.c      **** //            right_wheel_count = MAX_SPEED;
 258:.\main.c      **** //        }
 259:.\main.c      **** //        if (left_wheel_count > MAX_SPEED) {
 260:.\main.c      **** //            left_wheel_count = MAX_SPEED;
 261:.\main.c      **** //        }
 262:.\main.c      **** //        if (right_wheel_count < MIN_SPEED) {
 263:.\main.c      **** //            right_wheel_count = MIN_SPEED;
 264:.\main.c      **** //        }
 265:.\main.c      **** //        if (left_wheel_count < MIN_SPEED) {
 266:.\main.c      **** //            left_wheel_count = MIN_SPEED;
 267:.\main.c      **** //        }
 268:.\main.c      **** //        
 269:.\main.c      **** ////        if (polling_count == PRINT_RATE) {
 270:.\main.c      **** //        if (prev_state != state) {
 271:.\main.c      **** //            if (state == SLIGHTLY_LEFT) {
 272:.\main.c      **** //                usbPutString("SLIGHTLY_LEFT\r\n");
 273:.\main.c      **** //            } else if (state == SLIGHTLY_RIGHT) {
 274:.\main.c      **** //                usbPutString("SLIGHTLY_RIGHT\r\n");
 275:.\main.c      **** //            } else if (state == MEDIUM_LEFT) {
 276:.\main.c      **** //                usbPutString("MEDIUM_LEFT\r\n");
 277:.\main.c      **** //            } else if (state == MEDIUM_RIGHT) {
 278:.\main.c      **** //                usbPutString("MEDIUM_RIGHT\r\n");
 279:.\main.c      **** //            } else if (state == TURN_LEFT) {
 280:.\main.c      **** //                usbPutString("TURN_LEFT\r\n");
 281:.\main.c      **** //            } else if (state == TURN_RIGHT) {
 282:.\main.c      **** //                usbPutString("TURN_RIGHT\r\n");
 283:.\main.c      **** //            } else if (state == SLOW) {
 284:.\main.c      **** //                usbPutString("SLOW\r\n");
 285:.\main.c      **** //            } else if (state == PASS) {
 286:.\main.c      **** //                usbPutString("PASS\r\n");
 287:.\main.c      **** //            } else if (state == CORRECT) {
 288:.\main.c      **** //                usbPutString("CORRECT\r\n");
 289:.\main.c      **** //            }
 290:.\main.c      **** //            prev_state = state;
 291:.\main.c      **** //        }
 292:.\main.c      **** //                
 293:.\main.c      **** //                
 294:.\main.c      **** //        if (polling_count == PRINT_RATE) polling_count = 0;
 295:.\main.c      **** //    }
 296:.\main.c      **** }
 320              		.loc 1 296 0
ARM GAS  C:\Users\keva419\AppData\Local\Temp\cc1yIsQR.s 			page 12


 321 007e 1846     		mov	r0, r3
 322 0080 1837     		adds	r7, r7, #24
 323              		.cfi_def_cfa_offset 8
 324 0082 BD46     		mov	sp, r7
 325              		.cfi_def_cfa_register 13
 326              		@ sp needed
 327 0084 80BD     		pop	{r7, pc}
 328              	.L9:
 329 0086 00BF     		.align	2
 330              	.L8:
 331 0088 00000000 		.word	ENCODER_ISR
 332 008c 00000000 		.word	ADC_ISR
 333              		.cfi_endproc
 334              	.LFE65:
 335              		.size	main, .-main
 336              		.global	__aeabi_fadd
 337              		.global	__aeabi_i2f
 338              		.global	__aeabi_fcmpgt
 339              		.section	.text.goStraight,"ax",%progbits
 340              		.align	2
 341              		.global	goStraight
 342              		.thumb
 343              		.thumb_func
 344              		.type	goStraight, %function
 345              	goStraight:
 346              	.LFB66:
 297:.\main.c      **** 
 298:.\main.c      **** void goStraight(int desired_distance, int *right_wheel_count, int *left_wheel_count) {
 347              		.loc 1 298 0
 348              		.cfi_startproc
 349              		@ args = 0, pretend = 0, frame = 32
 350              		@ frame_needed = 1, uses_anonymous_args = 0
 351 0000 80B5     		push	{r7, lr}
 352              		.cfi_def_cfa_offset 8
 353              		.cfi_offset 7, -8
 354              		.cfi_offset 14, -4
 355 0002 88B0     		sub	sp, sp, #32
 356              		.cfi_def_cfa_offset 40
 357 0004 00AF     		add	r7, sp, #0
 358              		.cfi_def_cfa_register 7
 359 0006 F860     		str	r0, [r7, #12]
 360 0008 B960     		str	r1, [r7, #8]
 361 000a 7A60     		str	r2, [r7, #4]
 299:.\main.c      ****     // Storing count values
 300:.\main.c      ****     int prevCountM1 = 0;
 362              		.loc 1 300 0
 363 000c 0023     		movs	r3, #0
 364 000e FB61     		str	r3, [r7, #28]
 301:.\main.c      ****     int prevCountM2 = 0;
 365              		.loc 1 301 0
 366 0010 0023     		movs	r3, #0
 367 0012 BB61     		str	r3, [r7, #24]
 302:.\main.c      **** //    int right_wheel_count = DESIRED_COUNT;
 303:.\main.c      **** //    int left_wheel_count = DESIRED_COUNT;
 304:.\main.c      ****     float distance = 0;
 368              		.loc 1 304 0
 369 0014 4FF00003 		mov	r3, #0
ARM GAS  C:\Users\keva419\AppData\Local\Temp\cc1yIsQR.s 			page 13


 370 0018 7B61     		str	r3, [r7, #20]	@ float
 305:.\main.c      ****         
 306:.\main.c      ****     while (distance < desired_distance) {
 371              		.loc 1 306 0
 372 001a 93E0     		b	.L11
 373              	.L22:
 307:.\main.c      ****         if (adc_flag) {
 374              		.loc 1 307 0
 375 001c 514B     		ldr	r3, .L23
 376 001e 1B68     		ldr	r3, [r3]
 377 0020 002B     		cmp	r3, #0
 378 0022 04D0     		beq	.L12
 308:.\main.c      ****             updateSensorValues();
 379              		.loc 1 308 0
 380 0024 FFF7FEFF 		bl	updateSensorValues
 309:.\main.c      ****             adc_flag = FALSE;
 381              		.loc 1 309 0
 382 0028 4E4B     		ldr	r3, .L23
 383 002a 0022     		movs	r2, #0
 384 002c 1A60     		str	r2, [r3]
 385              	.L12:
 310:.\main.c      ****         }
 311:.\main.c      ****         
 312:.\main.c      ****          // New count values from encoder are ready
 313:.\main.c      ****         if (timer_flag){
 386              		.loc 1 313 0
 387 002e 4E4B     		ldr	r3, .L23+4
 388 0030 1B68     		ldr	r3, [r3]
 389 0032 002B     		cmp	r3, #0
 390 0034 2BD0     		beq	.L13
 314:.\main.c      ****             isr_TS_Disable();
 391              		.loc 1 314 0
 392 0036 FFF7FEFF 		bl	isr_TS_Disable
 315:.\main.c      ****             
 316:.\main.c      ****             distance += getDistance(prevCountM1, prevCountM2);
 393              		.loc 1 316 0
 394 003a F869     		ldr	r0, [r7, #28]
 395 003c B969     		ldr	r1, [r7, #24]
 396 003e FFF7FEFF 		bl	getDistance
 397 0042 0346     		mov	r3, r0
 398 0044 7869     		ldr	r0, [r7, #20]	@ float
 399 0046 1946     		mov	r1, r3
 400 0048 FFF7FEFF 		bl	__aeabi_fadd
 401 004c 0346     		mov	r3, r0
 402 004e 7B61     		str	r3, [r7, #20]	@ float
 317:.\main.c      ****             
 318:.\main.c      ****             // Correct speed
 319:.\main.c      ****             correctSpeed(prevCountM1,countM1,*left_wheel_count,TRUE);
 403              		.loc 1 319 0
 404 0050 464B     		ldr	r3, .L23+8
 405 0052 1A68     		ldr	r2, [r3]
 406 0054 7B68     		ldr	r3, [r7, #4]
 407 0056 1B68     		ldr	r3, [r3]
 408 0058 F869     		ldr	r0, [r7, #28]
 409 005a 1146     		mov	r1, r2
 410 005c 1A46     		mov	r2, r3
 411 005e 0123     		movs	r3, #1
ARM GAS  C:\Users\keva419\AppData\Local\Temp\cc1yIsQR.s 			page 14


 412 0060 FFF7FEFF 		bl	correctSpeed
 320:.\main.c      ****             correctSpeed(prevCountM2,countM2,*right_wheel_count,FALSE);
 413              		.loc 1 320 0
 414 0064 424B     		ldr	r3, .L23+12
 415 0066 1A68     		ldr	r2, [r3]
 416 0068 BB68     		ldr	r3, [r7, #8]
 417 006a 1B68     		ldr	r3, [r3]
 418 006c B869     		ldr	r0, [r7, #24]
 419 006e 1146     		mov	r1, r2
 420 0070 1A46     		mov	r2, r3
 421 0072 0023     		movs	r3, #0
 422 0074 FFF7FEFF 		bl	correctSpeed
 321:.\main.c      ****             
 322:.\main.c      ****             // Update previous values
 323:.\main.c      ****             prevCountM1 = countM1;
 423              		.loc 1 323 0
 424 0078 3C4B     		ldr	r3, .L23+8
 425 007a 1B68     		ldr	r3, [r3]
 426 007c FB61     		str	r3, [r7, #28]
 324:.\main.c      ****             prevCountM2 = countM2;
 427              		.loc 1 324 0
 428 007e 3C4B     		ldr	r3, .L23+12
 429 0080 1B68     		ldr	r3, [r3]
 430 0082 BB61     		str	r3, [r7, #24]
 325:.\main.c      ****             
 326:.\main.c      ****             // Reset flag
 327:.\main.c      ****             timer_flag = FALSE;
 431              		.loc 1 327 0
 432 0084 384B     		ldr	r3, .L23+4
 433 0086 0022     		movs	r2, #0
 434 0088 1A60     		str	r2, [r3]
 328:.\main.c      ****             
 329:.\main.c      ****             isr_TS_Enable();
 435              		.loc 1 329 0
 436 008a FFF7FEFF 		bl	isr_TS_Enable
 437              	.L13:
 330:.\main.c      ****         }
 331:.\main.c      ****         
 332:.\main.c      ****         // follow a line algorithm
 333:.\main.c      ****         if (sensor_readings[TOP_MID_SENSOR]) { // on line
 438              		.loc 1 333 0
 439 008e 394B     		ldr	r3, .L23+16
 440 0090 5B78     		ldrb	r3, [r3, #1]	@ zero_extendqisi2
 441 0092 002B     		cmp	r3, #0
 442 0094 25D0     		beq	.L14
 334:.\main.c      ****             if (!sensor_readings[TOP_LEFT_SENSOR] && sensor_readings[TOP_RIGHT_SENSOR]) {// Deviate
 443              		.loc 1 334 0
 444 0096 374B     		ldr	r3, .L23+16
 445 0098 1B78     		ldrb	r3, [r3]	@ zero_extendqisi2
 446 009a 002B     		cmp	r3, #0
 447 009c 0ED1     		bne	.L15
 448              		.loc 1 334 0 is_stmt 0 discriminator 1
 449 009e 354B     		ldr	r3, .L23+16
 450 00a0 9B78     		ldrb	r3, [r3, #2]	@ zero_extendqisi2
 451 00a2 002B     		cmp	r3, #0
 452 00a4 0AD0     		beq	.L15
 335:.\main.c      ****                 *right_wheel_count -= ADJUST_SPEED_SMALL;
ARM GAS  C:\Users\keva419\AppData\Local\Temp\cc1yIsQR.s 			page 15


 453              		.loc 1 335 0 is_stmt 1
 454 00a6 BB68     		ldr	r3, [r7, #8]
 455 00a8 1B68     		ldr	r3, [r3]
 456 00aa 5A1E     		subs	r2, r3, #1
 457 00ac BB68     		ldr	r3, [r7, #8]
 458 00ae 1A60     		str	r2, [r3]
 336:.\main.c      ****                 *left_wheel_count += ADJUST_SPEED_SMALL;
 459              		.loc 1 336 0
 460 00b0 7B68     		ldr	r3, [r7, #4]
 461 00b2 1B68     		ldr	r3, [r3]
 462 00b4 5A1C     		adds	r2, r3, #1
 463 00b6 7B68     		ldr	r3, [r7, #4]
 464 00b8 1A60     		str	r2, [r3]
 465 00ba 27E0     		b	.L17
 466              	.L15:
 337:.\main.c      ****             } else if (sensor_readings[TOP_LEFT_SENSOR] && !sensor_readings[TOP_RIGHT_SENSOR]) { //
 467              		.loc 1 337 0
 468 00bc 2D4B     		ldr	r3, .L23+16
 469 00be 1B78     		ldrb	r3, [r3]	@ zero_extendqisi2
 470 00c0 002B     		cmp	r3, #0
 471 00c2 23D0     		beq	.L17
 472              		.loc 1 337 0 is_stmt 0 discriminator 1
 473 00c4 2B4B     		ldr	r3, .L23+16
 474 00c6 9B78     		ldrb	r3, [r3, #2]	@ zero_extendqisi2
 475 00c8 002B     		cmp	r3, #0
 476 00ca 1FD1     		bne	.L17
 338:.\main.c      ****                 *right_wheel_count += ADJUST_SPEED_SMALL;
 477              		.loc 1 338 0 is_stmt 1
 478 00cc BB68     		ldr	r3, [r7, #8]
 479 00ce 1B68     		ldr	r3, [r3]
 480 00d0 5A1C     		adds	r2, r3, #1
 481 00d2 BB68     		ldr	r3, [r7, #8]
 482 00d4 1A60     		str	r2, [r3]
 339:.\main.c      ****                 *left_wheel_count -= ADJUST_SPEED_SMALL;
 483              		.loc 1 339 0
 484 00d6 7B68     		ldr	r3, [r7, #4]
 485 00d8 1B68     		ldr	r3, [r3]
 486 00da 5A1E     		subs	r2, r3, #1
 487 00dc 7B68     		ldr	r3, [r7, #4]
 488 00de 1A60     		str	r2, [r3]
 489 00e0 14E0     		b	.L17
 490              	.L14:
 340:.\main.c      ****             } else { // Correct speed
 341:.\main.c      ****             }
 342:.\main.c      ****         } else { // moved off
 343:.\main.c      ****             if (!sensor_readings[TOP_LEFT_SENSOR] && sensor_readings[TOP_RIGHT_SENSOR]) {// Deviate
 491              		.loc 1 343 0
 492 00e2 244B     		ldr	r3, .L23+16
 493 00e4 1B78     		ldrb	r3, [r3]	@ zero_extendqisi2
 494 00e6 002B     		cmp	r3, #0
 495 00e8 06D1     		bne	.L18
 496              		.loc 1 343 0 is_stmt 0 discriminator 1
 497 00ea 224B     		ldr	r3, .L23+16
 498 00ec 9B78     		ldrb	r3, [r3, #2]	@ zero_extendqisi2
 499 00ee 002B     		cmp	r3, #0
 500 00f0 02D0     		beq	.L18
 344:.\main.c      ****                 turnRight();
ARM GAS  C:\Users\keva419\AppData\Local\Temp\cc1yIsQR.s 			page 16


 501              		.loc 1 344 0 is_stmt 1
 502 00f2 FFF7FEFF 		bl	turnRight
 503 00f6 09E0     		b	.L17
 504              	.L18:
 345:.\main.c      ****             } else if (sensor_readings[TOP_LEFT_SENSOR] && !sensor_readings[TOP_RIGHT_SENSOR]) {// 
 505              		.loc 1 345 0
 506 00f8 1E4B     		ldr	r3, .L23+16
 507 00fa 1B78     		ldrb	r3, [r3]	@ zero_extendqisi2
 508 00fc 002B     		cmp	r3, #0
 509 00fe 05D0     		beq	.L17
 510              		.loc 1 345 0 is_stmt 0 discriminator 1
 511 0100 1C4B     		ldr	r3, .L23+16
 512 0102 9B78     		ldrb	r3, [r3, #2]	@ zero_extendqisi2
 513 0104 002B     		cmp	r3, #0
 514 0106 01D1     		bne	.L17
 346:.\main.c      **** 				turnLeft();
 515              		.loc 1 346 0 is_stmt 1
 516 0108 FFF7FEFF 		bl	turnLeft
 517              	.L17:
 347:.\main.c      ****             }
 348:.\main.c      ****         }
 349:.\main.c      ****         
 350:.\main.c      ****         if (*right_wheel_count > MAX_SPEED) {
 518              		.loc 1 350 0
 519 010c BB68     		ldr	r3, [r7, #8]
 520 010e 1B68     		ldr	r3, [r3]
 521 0110 092B     		cmp	r3, #9
 522 0112 02DD     		ble	.L19
 351:.\main.c      ****             *right_wheel_count = MAX_SPEED;
 523              		.loc 1 351 0
 524 0114 BB68     		ldr	r3, [r7, #8]
 525 0116 0922     		movs	r2, #9
 526 0118 1A60     		str	r2, [r3]
 527              	.L19:
 352:.\main.c      ****         }
 353:.\main.c      ****         if (*left_wheel_count > MAX_SPEED) {
 528              		.loc 1 353 0
 529 011a 7B68     		ldr	r3, [r7, #4]
 530 011c 1B68     		ldr	r3, [r3]
 531 011e 092B     		cmp	r3, #9
 532 0120 02DD     		ble	.L20
 354:.\main.c      ****             *left_wheel_count = MAX_SPEED;
 533              		.loc 1 354 0
 534 0122 7B68     		ldr	r3, [r7, #4]
 535 0124 0922     		movs	r2, #9
 536 0126 1A60     		str	r2, [r3]
 537              	.L20:
 355:.\main.c      ****         }
 356:.\main.c      ****         if (*right_wheel_count < MIN_SPEED) {
 538              		.loc 1 356 0
 539 0128 BB68     		ldr	r3, [r7, #8]
 540 012a 1B68     		ldr	r3, [r3]
 541 012c 032B     		cmp	r3, #3
 542 012e 02DC     		bgt	.L21
 357:.\main.c      ****             *right_wheel_count = MIN_SPEED;
 543              		.loc 1 357 0
 544 0130 BB68     		ldr	r3, [r7, #8]
ARM GAS  C:\Users\keva419\AppData\Local\Temp\cc1yIsQR.s 			page 17


 545 0132 0422     		movs	r2, #4
 546 0134 1A60     		str	r2, [r3]
 547              	.L21:
 358:.\main.c      ****         }
 359:.\main.c      ****         if (*left_wheel_count < MIN_SPEED) {
 548              		.loc 1 359 0
 549 0136 7B68     		ldr	r3, [r7, #4]
 550 0138 1B68     		ldr	r3, [r3]
 551 013a 032B     		cmp	r3, #3
 552 013c 02DC     		bgt	.L11
 360:.\main.c      ****             *left_wheel_count = MIN_SPEED;
 553              		.loc 1 360 0
 554 013e 7B68     		ldr	r3, [r7, #4]
 555 0140 0422     		movs	r2, #4
 556 0142 1A60     		str	r2, [r3]
 557              	.L11:
 306:.\main.c      ****         if (adc_flag) {
 558              		.loc 1 306 0
 559 0144 F868     		ldr	r0, [r7, #12]
 560 0146 FFF7FEFF 		bl	__aeabi_i2f
 561 014a 0346     		mov	r3, r0
 562 014c 1846     		mov	r0, r3
 563 014e 7969     		ldr	r1, [r7, #20]	@ float
 564 0150 FFF7FEFF 		bl	__aeabi_fcmpgt
 565 0154 0346     		mov	r3, r0
 566 0156 002B     		cmp	r3, #0
 567 0158 7FF460AF 		bne	.L22
 361:.\main.c      ****         }
 362:.\main.c      ****     }
 363:.\main.c      **** }
 568              		.loc 1 363 0
 569 015c 2037     		adds	r7, r7, #32
 570              		.cfi_def_cfa_offset 8
 571 015e BD46     		mov	sp, r7
 572              		.cfi_def_cfa_register 13
 573              		@ sp needed
 574 0160 80BD     		pop	{r7, pc}
 575              	.L24:
 576 0162 00BF     		.align	2
 577              	.L23:
 578 0164 00000000 		.word	adc_flag
 579 0168 00000000 		.word	timer_flag
 580 016c 00000000 		.word	countM1
 581 0170 00000000 		.word	countM2
 582 0174 00000000 		.word	sensor_readings
 583              		.cfi_endproc
 584              	.LFE66:
 585              		.size	goStraight, .-goStraight
 586              		.global	__aeabi_fdiv
 587              		.global	__aeabi_f2d
 588              		.global	__aeabi_dmul
 589              		.global	__aeabi_d2f
 590              		.section	.text.getDistance,"ax",%progbits
 591              		.align	2
 592              		.global	getDistance
 593              		.thumb
 594              		.thumb_func
ARM GAS  C:\Users\keva419\AppData\Local\Temp\cc1yIsQR.s 			page 18


 595              		.type	getDistance, %function
 596              	getDistance:
 597              	.LFB67:
 364:.\main.c      **** 
 365:.\main.c      **** //char* itoa(int val, int base) {
 366:.\main.c      **** //    static char buf[32] = {0};
 367:.\main.c      **** //    
 368:.\main.c      **** //    int i = 30;
 369:.\main.c      **** //    for (; val && i ; --i, val /= base)
 370:.\main.c      **** //        buf[i] = "01234566789abcdef"[val % base];
 371:.\main.c      **** //        
 372:.\main.c      **** //    return &buf[i+1];
 373:.\main.c      **** //}
 374:.\main.c      **** 
 375:.\main.c      **** float getDistance(int prevCountM1, int prevCountM2){
 598              		.loc 1 375 0
 599              		.cfi_startproc
 600              		@ args = 0, pretend = 0, frame = 16
 601              		@ frame_needed = 1, uses_anonymous_args = 0
 602 0000 80B5     		push	{r7, lr}
 603              		.cfi_def_cfa_offset 8
 604              		.cfi_offset 7, -8
 605              		.cfi_offset 14, -4
 606 0002 84B0     		sub	sp, sp, #16
 607              		.cfi_def_cfa_offset 24
 608 0004 00AF     		add	r7, sp, #0
 609              		.cfi_def_cfa_register 7
 610 0006 7860     		str	r0, [r7, #4]
 611 0008 3960     		str	r1, [r7]
 376:.\main.c      ****     float m1_dist = ((float)abs(countM1 - prevCountM1) / TICKS_PER_REV) * LINEAR_DISTANCE_PER_REV;
 612              		.loc 1 376 0
 613 000a 2D4B     		ldr	r3, .L27+8
 614 000c 1A68     		ldr	r2, [r3]
 615 000e 7B68     		ldr	r3, [r7, #4]
 616 0010 D31A     		subs	r3, r2, r3
 617 0012 002B     		cmp	r3, #0
 618 0014 B8BF     		it	lt
 619 0016 5B42     		rsblt	r3, r3, #0
 620 0018 1846     		mov	r0, r3
 621 001a FFF7FEFF 		bl	__aeabi_i2f
 622 001e 0346     		mov	r3, r0
 623 0020 1846     		mov	r0, r3
 624 0022 2849     		ldr	r1, .L27+12
 625 0024 FFF7FEFF 		bl	__aeabi_fdiv
 626 0028 0346     		mov	r3, r0
 627 002a 1846     		mov	r0, r3
 628 002c FFF7FEFF 		bl	__aeabi_f2d
 629 0030 0246     		mov	r2, r0
 630 0032 0B46     		mov	r3, r1
 631 0034 1046     		mov	r0, r2
 632 0036 1946     		mov	r1, r3
 633 0038 1FA3     		adr	r3, .L27
 634 003a D3E90023 		ldrd	r2, [r3]
 635 003e FFF7FEFF 		bl	__aeabi_dmul
 636 0042 0246     		mov	r2, r0
 637 0044 0B46     		mov	r3, r1
 638 0046 1046     		mov	r0, r2
ARM GAS  C:\Users\keva419\AppData\Local\Temp\cc1yIsQR.s 			page 19


 639 0048 1946     		mov	r1, r3
 640 004a FFF7FEFF 		bl	__aeabi_d2f
 641 004e 0346     		mov	r3, r0
 642 0050 FB60     		str	r3, [r7, #12]	@ float
 377:.\main.c      ****     float m2_dist = ((float)abs(countM2 - prevCountM2) / TICKS_PER_REV) * LINEAR_DISTANCE_PER_REV;
 643              		.loc 1 377 0
 644 0052 1D4B     		ldr	r3, .L27+16
 645 0054 1A68     		ldr	r2, [r3]
 646 0056 3B68     		ldr	r3, [r7]
 647 0058 D31A     		subs	r3, r2, r3
 648 005a 002B     		cmp	r3, #0
 649 005c B8BF     		it	lt
 650 005e 5B42     		rsblt	r3, r3, #0
 651 0060 1846     		mov	r0, r3
 652 0062 FFF7FEFF 		bl	__aeabi_i2f
 653 0066 0346     		mov	r3, r0
 654 0068 1846     		mov	r0, r3
 655 006a 1649     		ldr	r1, .L27+12
 656 006c FFF7FEFF 		bl	__aeabi_fdiv
 657 0070 0346     		mov	r3, r0
 658 0072 1846     		mov	r0, r3
 659 0074 FFF7FEFF 		bl	__aeabi_f2d
 660 0078 0246     		mov	r2, r0
 661 007a 0B46     		mov	r3, r1
 662 007c 1046     		mov	r0, r2
 663 007e 1946     		mov	r1, r3
 664 0080 0DA3     		adr	r3, .L27
 665 0082 D3E90023 		ldrd	r2, [r3]
 666 0086 FFF7FEFF 		bl	__aeabi_dmul
 667 008a 0246     		mov	r2, r0
 668 008c 0B46     		mov	r3, r1
 669 008e 1046     		mov	r0, r2
 670 0090 1946     		mov	r1, r3
 671 0092 FFF7FEFF 		bl	__aeabi_d2f
 672 0096 0346     		mov	r3, r0
 673 0098 BB60     		str	r3, [r7, #8]	@ float
 378:.\main.c      ****     return (m1_dist+m2_dist)/2;
 674              		.loc 1 378 0
 675 009a F868     		ldr	r0, [r7, #12]	@ float
 676 009c B968     		ldr	r1, [r7, #8]	@ float
 677 009e FFF7FEFF 		bl	__aeabi_fadd
 678 00a2 0346     		mov	r3, r0
 679 00a4 1846     		mov	r0, r3
 680 00a6 4FF08041 		mov	r1, #1073741824
 681 00aa FFF7FEFF 		bl	__aeabi_fdiv
 682 00ae 0346     		mov	r3, r0
 379:.\main.c      **** };
 683              		.loc 1 379 0
 684 00b0 1846     		mov	r0, r3
 685 00b2 1037     		adds	r7, r7, #16
 686              		.cfi_def_cfa_offset 8
 687 00b4 BD46     		mov	sp, r7
 688              		.cfi_def_cfa_register 13
 689              		@ sp needed
 690 00b6 80BD     		pop	{r7, pc}
 691              	.L28:
 692              		.align	3
ARM GAS  C:\Users\keva419\AppData\Local\Temp\cc1yIsQR.s 			page 20


 693              	.L27:
 694 00b8 CE8C7E34 		.word	880708814
 695 00bc 9C6B3440 		.word	1077177244
 696 00c0 00000000 		.word	countM1
 697 00c4 00006443 		.word	1130627072
 698 00c8 00000000 		.word	countM2
 699              		.cfi_endproc
 700              	.LFE67:
 701              		.size	getDistance, .-getDistance
 702 00cc AFF30080 		.section	.text.getValForChannel,"ax",%progbits
 703              		.align	2
 704              		.global	getValForChannel
 705              		.thumb
 706              		.thumb_func
 707              		.type	getValForChannel, %function
 708              	getValForChannel:
 709              	.LFB68:
 380:.\main.c      **** 
 381:.\main.c      **** // Simple ADC conversion
 382:.\main.c      **** int32 getValForChannel(int16 n){
 710              		.loc 1 382 0
 711              		.cfi_startproc
 712              		@ args = 0, pretend = 0, frame = 8
 713              		@ frame_needed = 1, uses_anonymous_args = 0
 714 0000 80B5     		push	{r7, lr}
 715              		.cfi_def_cfa_offset 8
 716              		.cfi_offset 7, -8
 717              		.cfi_offset 14, -4
 718 0002 82B0     		sub	sp, sp, #8
 719              		.cfi_def_cfa_offset 16
 720 0004 00AF     		add	r7, sp, #0
 721              		.cfi_def_cfa_register 7
 722 0006 0346     		mov	r3, r0
 723 0008 FB80     		strh	r3, [r7, #6]	@ movhi
 383:.\main.c      ****     return ADC_CountsTo_mVolts(ADC_GetResult16(n));
 724              		.loc 1 383 0
 725 000a FB88     		ldrh	r3, [r7, #6]
 726 000c 1846     		mov	r0, r3
 727 000e FFF7FEFF 		bl	ADC_GetResult16
 728 0012 0346     		mov	r3, r0
 729 0014 1846     		mov	r0, r3
 730 0016 FFF7FEFF 		bl	ADC_CountsTo_mVolts
 731 001a 0346     		mov	r3, r0
 384:.\main.c      **** }
 732              		.loc 1 384 0
 733 001c 1846     		mov	r0, r3
 734 001e 0837     		adds	r7, r7, #8
 735              		.cfi_def_cfa_offset 8
 736 0020 BD46     		mov	sp, r7
 737              		.cfi_def_cfa_register 13
 738              		@ sp needed
 739 0022 80BD     		pop	{r7, pc}
 740              		.cfi_endproc
 741              	.LFE68:
 742              		.size	getValForChannel, .-getValForChannel
 743              		.section	.text.updateSensorValues,"ax",%progbits
 744              		.align	2
ARM GAS  C:\Users\keva419\AppData\Local\Temp\cc1yIsQR.s 			page 21


 745              		.global	updateSensorValues
 746              		.thumb
 747              		.thumb_func
 748              		.type	updateSensorValues, %function
 749              	updateSensorValues:
 750              	.LFB69:
 385:.\main.c      **** 
 386:.\main.c      **** void updateSensorValues(){
 751              		.loc 1 386 0
 752              		.cfi_startproc
 753              		@ args = 0, pretend = 0, frame = 8
 754              		@ frame_needed = 1, uses_anonymous_args = 0
 755 0000 80B5     		push	{r7, lr}
 756              		.cfi_def_cfa_offset 8
 757              		.cfi_offset 7, -8
 758              		.cfi_offset 14, -4
 759 0002 82B0     		sub	sp, sp, #8
 760              		.cfi_def_cfa_offset 16
 761 0004 00AF     		add	r7, sp, #0
 762              		.cfi_def_cfa_register 7
 387:.\main.c      ****     // update each sensor with the maximum reading so far
 388:.\main.c      ****     int i;
 389:.\main.c      ****     for (i = 0; i < NUM_SENSORS; i++){
 763              		.loc 1 389 0
 764 0006 0023     		movs	r3, #0
 765 0008 7B60     		str	r3, [r7, #4]
 766 000a 15E0     		b	.L32
 767              	.L34:
 768              	.LBB2:
 390:.\main.c      ****         int reading = getValForChannel(i);
 769              		.loc 1 390 0
 770 000c 7B68     		ldr	r3, [r7, #4]
 771 000e 9BB2     		uxth	r3, r3
 772 0010 1BB2     		sxth	r3, r3
 773 0012 1846     		mov	r0, r3
 774 0014 FFF7FEFF 		bl	getValForChannel
 775 0018 3860     		str	r0, [r7]
 391:.\main.c      ****         if (reading > adc_readings[i]) {
 776              		.loc 1 391 0
 777 001a 234A     		ldr	r2, .L39
 778 001c 7B68     		ldr	r3, [r7, #4]
 779 001e 52F82320 		ldr	r2, [r2, r3, lsl #2]
 780 0022 3B68     		ldr	r3, [r7]
 781 0024 9A42     		cmp	r2, r3
 782 0026 04DA     		bge	.L33
 392:.\main.c      ****             adc_readings[i] = reading;
 783              		.loc 1 392 0
 784 0028 1F49     		ldr	r1, .L39
 785 002a 7B68     		ldr	r3, [r7, #4]
 786 002c 3A68     		ldr	r2, [r7]
 787 002e 41F82320 		str	r2, [r1, r3, lsl #2]
 788              	.L33:
 789              	.LBE2:
 389:.\main.c      ****         int reading = getValForChannel(i);
 790              		.loc 1 389 0 discriminator 2
 791 0032 7B68     		ldr	r3, [r7, #4]
 792 0034 0133     		adds	r3, r3, #1
ARM GAS  C:\Users\keva419\AppData\Local\Temp\cc1yIsQR.s 			page 22


 793 0036 7B60     		str	r3, [r7, #4]
 794              	.L32:
 389:.\main.c      ****         int reading = getValForChannel(i);
 795              		.loc 1 389 0 is_stmt 0 discriminator 1
 796 0038 7B68     		ldr	r3, [r7, #4]
 797 003a 052B     		cmp	r3, #5
 798 003c E6DD     		ble	.L34
 393:.\main.c      ****         }
 394:.\main.c      ****     }
 395:.\main.c      **** 
 396:.\main.c      ****     sample_count++;
 799              		.loc 1 396 0 is_stmt 1
 800 003e 1B4B     		ldr	r3, .L39+4
 801 0040 1B68     		ldr	r3, [r3]
 802 0042 0133     		adds	r3, r3, #1
 803 0044 194A     		ldr	r2, .L39+4
 804 0046 1360     		str	r3, [r2]
 397:.\main.c      ****     if (sample_count == ADC_READINGS_SIZE){
 805              		.loc 1 397 0
 806 0048 184B     		ldr	r3, .L39+4
 807 004a 1B68     		ldr	r3, [r3]
 808 004c 5A2B     		cmp	r3, #90
 809 004e 25D1     		bne	.L35
 398:.\main.c      ****         // Black = 1 (high voltage level)
 399:.\main.c      ****         for (i = 0; i < NUM_SENSORS; i++){
 810              		.loc 1 399 0
 811 0050 0023     		movs	r3, #0
 812 0052 7B60     		str	r3, [r7, #4]
 813 0054 18E0     		b	.L36
 814              	.L37:
 400:.\main.c      ****             sensor_readings[i] = !!(adc_readings[i] < LIGHT_LEVEL);
 815              		.loc 1 400 0 discriminator 3
 816 0056 144A     		ldr	r2, .L39
 817 0058 7B68     		ldr	r3, [r7, #4]
 818 005a 52F82330 		ldr	r3, [r2, r3, lsl #2]
 819 005e 40F22B12 		movw	r2, #299
 820 0062 9342     		cmp	r3, r2
 821 0064 D4BF     		ite	le
 822 0066 0123     		movle	r3, #1
 823 0068 0023     		movgt	r3, #0
 824 006a DBB2     		uxtb	r3, r3
 825 006c D9B2     		uxtb	r1, r3
 826 006e 104A     		ldr	r2, .L39+8
 827 0070 7B68     		ldr	r3, [r7, #4]
 828 0072 1344     		add	r3, r3, r2
 829 0074 0A46     		mov	r2, r1
 830 0076 1A70     		strb	r2, [r3]
 401:.\main.c      ****             adc_readings[i] = 0; // Reset max value from samples
 831              		.loc 1 401 0 discriminator 3
 832 0078 0B4A     		ldr	r2, .L39
 833 007a 7B68     		ldr	r3, [r7, #4]
 834 007c 0021     		movs	r1, #0
 835 007e 42F82310 		str	r1, [r2, r3, lsl #2]
 399:.\main.c      ****             sensor_readings[i] = !!(adc_readings[i] < LIGHT_LEVEL);
 836              		.loc 1 399 0 discriminator 3
 837 0082 7B68     		ldr	r3, [r7, #4]
 838 0084 0133     		adds	r3, r3, #1
ARM GAS  C:\Users\keva419\AppData\Local\Temp\cc1yIsQR.s 			page 23


 839 0086 7B60     		str	r3, [r7, #4]
 840              	.L36:
 399:.\main.c      ****             sensor_readings[i] = !!(adc_readings[i] < LIGHT_LEVEL);
 841              		.loc 1 399 0 is_stmt 0 discriminator 1
 842 0088 7B68     		ldr	r3, [r7, #4]
 843 008a 052B     		cmp	r3, #5
 844 008c E3DD     		ble	.L37
 402:.\main.c      ****         }
 403:.\main.c      ****         ADC_DEBUG_Write(1);
 845              		.loc 1 403 0 is_stmt 1
 846 008e 0120     		movs	r0, #1
 847 0090 FFF7FEFF 		bl	ADC_DEBUG_Write
 404:.\main.c      ****         sample_count = 0;
 848              		.loc 1 404 0
 849 0094 054B     		ldr	r3, .L39+4
 850 0096 0022     		movs	r2, #0
 851 0098 1A60     		str	r2, [r3]
 852 009a 02E0     		b	.L31
 853              	.L35:
 405:.\main.c      ****     }
 406:.\main.c      ****     else ADC_DEBUG_Write(0);
 854              		.loc 1 406 0
 855 009c 0020     		movs	r0, #0
 856 009e FFF7FEFF 		bl	ADC_DEBUG_Write
 857              	.L31:
 407:.\main.c      **** }
 858              		.loc 1 407 0
 859 00a2 0837     		adds	r7, r7, #8
 860              		.cfi_def_cfa_offset 8
 861 00a4 BD46     		mov	sp, r7
 862              		.cfi_def_cfa_register 13
 863              		@ sp needed
 864 00a6 80BD     		pop	{r7, pc}
 865              	.L40:
 866              		.align	2
 867              	.L39:
 868 00a8 00000000 		.word	adc_readings
 869 00ac 00000000 		.word	sample_count
 870 00b0 00000000 		.word	sensor_readings
 871              		.cfi_endproc
 872              	.LFE69:
 873              		.size	updateSensorValues, .-updateSensorValues
 874              		.section	.text.changeLeftWheelSpeed,"ax",%progbits
 875              		.align	2
 876              		.global	changeLeftWheelSpeed
 877              		.thumb
 878              		.thumb_func
 879              		.type	changeLeftWheelSpeed, %function
 880              	changeLeftWheelSpeed:
 881              	.LFB70:
 408:.\main.c      **** 
 409:.\main.c      **** void changeLeftWheelSpeed(int amount) {
 882              		.loc 1 409 0
 883              		.cfi_startproc
 884              		@ args = 0, pretend = 0, frame = 16
 885              		@ frame_needed = 1, uses_anonymous_args = 0
 886 0000 80B5     		push	{r7, lr}
ARM GAS  C:\Users\keva419\AppData\Local\Temp\cc1yIsQR.s 			page 24


 887              		.cfi_def_cfa_offset 8
 888              		.cfi_offset 7, -8
 889              		.cfi_offset 14, -4
 890 0002 84B0     		sub	sp, sp, #16
 891              		.cfi_def_cfa_offset 24
 892 0004 00AF     		add	r7, sp, #0
 893              		.cfi_def_cfa_register 7
 894 0006 7860     		str	r0, [r7, #4]
 410:.\main.c      ****     int new_value = PWM_1_ReadCompare() + amount;
 895              		.loc 1 410 0
 896 0008 FFF7FEFF 		bl	PWM_1_ReadCompare
 897 000c 0346     		mov	r3, r0
 898 000e 1A46     		mov	r2, r3
 899 0010 7B68     		ldr	r3, [r7, #4]
 900 0012 1344     		add	r3, r3, r2
 901 0014 FB60     		str	r3, [r7, #12]
 411:.\main.c      ****     PWM_1_WriteCompare((new_value > 0) ? new_value:0); // account for underflow
 902              		.loc 1 411 0
 903 0016 FB68     		ldr	r3, [r7, #12]
 904 0018 23EAE373 		bic	r3, r3, r3, asr #31
 905 001c 9BB2     		uxth	r3, r3
 906 001e 1846     		mov	r0, r3
 907 0020 FFF7FEFF 		bl	PWM_1_WriteCompare
 412:.\main.c      **** }
 908              		.loc 1 412 0
 909 0024 1037     		adds	r7, r7, #16
 910              		.cfi_def_cfa_offset 8
 911 0026 BD46     		mov	sp, r7
 912              		.cfi_def_cfa_register 13
 913              		@ sp needed
 914 0028 80BD     		pop	{r7, pc}
 915              		.cfi_endproc
 916              	.LFE70:
 917              		.size	changeLeftWheelSpeed, .-changeLeftWheelSpeed
 918 002a 00BF     		.section	.text.changeRightWheelSpeed,"ax",%progbits
 919              		.align	2
 920              		.global	changeRightWheelSpeed
 921              		.thumb
 922              		.thumb_func
 923              		.type	changeRightWheelSpeed, %function
 924              	changeRightWheelSpeed:
 925              	.LFB71:
 413:.\main.c      **** 
 414:.\main.c      **** void changeRightWheelSpeed(int amount){
 926              		.loc 1 414 0
 927              		.cfi_startproc
 928              		@ args = 0, pretend = 0, frame = 16
 929              		@ frame_needed = 1, uses_anonymous_args = 0
 930 0000 80B5     		push	{r7, lr}
 931              		.cfi_def_cfa_offset 8
 932              		.cfi_offset 7, -8
 933              		.cfi_offset 14, -4
 934 0002 84B0     		sub	sp, sp, #16
 935              		.cfi_def_cfa_offset 24
 936 0004 00AF     		add	r7, sp, #0
 937              		.cfi_def_cfa_register 7
 938 0006 7860     		str	r0, [r7, #4]
ARM GAS  C:\Users\keva419\AppData\Local\Temp\cc1yIsQR.s 			page 25


 415:.\main.c      ****     int new_value = PWM_2_ReadCompare() + amount;
 939              		.loc 1 415 0
 940 0008 FFF7FEFF 		bl	PWM_2_ReadCompare
 941 000c 0346     		mov	r3, r0
 942 000e 1A46     		mov	r2, r3
 943 0010 7B68     		ldr	r3, [r7, #4]
 944 0012 1344     		add	r3, r3, r2
 945 0014 FB60     		str	r3, [r7, #12]
 416:.\main.c      ****     PWM_2_WriteCompare((new_value > 0) ? new_value:0); // account for underflow
 946              		.loc 1 416 0
 947 0016 FB68     		ldr	r3, [r7, #12]
 948 0018 23EAE373 		bic	r3, r3, r3, asr #31
 949 001c 9BB2     		uxth	r3, r3
 950 001e 1846     		mov	r0, r3
 951 0020 FFF7FEFF 		bl	PWM_2_WriteCompare
 417:.\main.c      **** }
 952              		.loc 1 417 0
 953 0024 1037     		adds	r7, r7, #16
 954              		.cfi_def_cfa_offset 8
 955 0026 BD46     		mov	sp, r7
 956              		.cfi_def_cfa_register 13
 957              		@ sp needed
 958 0028 80BD     		pop	{r7, pc}
 959              		.cfi_endproc
 960              	.LFE71:
 961              		.size	changeRightWheelSpeed, .-changeRightWheelSpeed
 962 002a 00BF     		.section	.text.correctSpeed,"ax",%progbits
 963              		.align	2
 964              		.global	correctSpeed
 965              		.thumb
 966              		.thumb_func
 967              		.type	correctSpeed, %function
 968              	correctSpeed:
 969              	.LFB72:
 418:.\main.c      **** 
 419:.\main.c      **** /* ## SPEED CONTROL ## 
 420:.\main.c      **** * Algorithm: Get difference between counts, compare to
 421:.\main.c      **** * the difference we expect. Add the correction to the PWM.
 422:.\main.c      **** */
 423:.\main.c      **** void correctSpeed(int prevCount, int count, int desired_count, int isLeftWheel){    
 970              		.loc 1 423 0
 971              		.cfi_startproc
 972              		@ args = 0, pretend = 0, frame = 88
 973              		@ frame_needed = 1, uses_anonymous_args = 0
 974 0000 80B5     		push	{r7, lr}
 975              		.cfi_def_cfa_offset 8
 976              		.cfi_offset 7, -8
 977              		.cfi_offset 14, -4
 978 0002 96B0     		sub	sp, sp, #88
 979              		.cfi_def_cfa_offset 96
 980 0004 00AF     		add	r7, sp, #0
 981              		.cfi_def_cfa_register 7
 982 0006 F860     		str	r0, [r7, #12]
 983 0008 B960     		str	r1, [r7, #8]
 984 000a 7A60     		str	r2, [r7, #4]
 985 000c 3B60     		str	r3, [r7]
 424:.\main.c      ****     
ARM GAS  C:\Users\keva419\AppData\Local\Temp\cc1yIsQR.s 			page 26


 425:.\main.c      ****     // Account for overflow edge or other unknown error
 426:.\main.c      ****     if (prevCount > count) return;
 986              		.loc 1 426 0
 987 000e FA68     		ldr	r2, [r7, #12]
 988 0010 BB68     		ldr	r3, [r7, #8]
 989 0012 9A42     		cmp	r2, r3
 990 0014 00DD     		ble	.L44
 991 0016 19E0     		b	.L43
 992              	.L44:
 427:.\main.c      ****     
 428:.\main.c      ****     int diff_count = abs(count - prevCount);
 993              		.loc 1 428 0
 994 0018 BA68     		ldr	r2, [r7, #8]
 995 001a FB68     		ldr	r3, [r7, #12]
 996 001c D31A     		subs	r3, r2, r3
 997 001e 002B     		cmp	r3, #0
 998 0020 B8BF     		it	lt
 999 0022 5B42     		rsblt	r3, r3, #0
 1000 0024 7B65     		str	r3, [r7, #84]
 429:.\main.c      ****     
 430:.\main.c      ****     // Account for a situation where PSoc is powered but wheels aren't moving
 431:.\main.c      ****     if (diff_count == 0) return;
 1001              		.loc 1 431 0
 1002 0026 7B6D     		ldr	r3, [r7, #84]
 1003 0028 002B     		cmp	r3, #0
 1004 002a 00D1     		bne	.L46
 1005              		.loc 1 431 0 is_stmt 0 discriminator 2
 1006 002c 0EE0     		b	.L43
 1007              	.L46:
 432:.\main.c      ****     
 433:.\main.c      ****     char msg[64];
 434:.\main.c      ****         
 435:.\main.c      ****     /* Determine correction that must be applied to the wheel
 436:.\main.c      ****     * desired_count > diff_count :-> wheel is slow; increase PWM
 437:.\main.c      ****     * desired_count < diff_count :-> wheel is fast; decrease PWM
 438:.\main.c      ****     * desired_count == diff_count :-> wheel is stable; do nothing
 439:.\main.c      ****     */
 440:.\main.c      ****     int correction = desired_count-diff_count;
 1008              		.loc 1 440 0 is_stmt 1
 1009 002e 7A68     		ldr	r2, [r7, #4]
 1010 0030 7B6D     		ldr	r3, [r7, #84]
 1011 0032 D31A     		subs	r3, r2, r3
 1012 0034 3B65     		str	r3, [r7, #80]
 441:.\main.c      ****     
 442:.\main.c      ****     // Apply the speed correction to the appropriate wheel          
 443:.\main.c      ****     if (isLeftWheel){
 1013              		.loc 1 443 0
 1014 0036 3B68     		ldr	r3, [r7]
 1015 0038 002B     		cmp	r3, #0
 1016 003a 03D0     		beq	.L47
 444:.\main.c      ****         changeLeftWheelSpeed(correction);
 1017              		.loc 1 444 0
 1018 003c 386D     		ldr	r0, [r7, #80]
 1019 003e FFF7FEFF 		bl	changeLeftWheelSpeed
 1020 0042 02E0     		b	.L48
 1021              	.L47:
 445:.\main.c      ****     }
ARM GAS  C:\Users\keva419\AppData\Local\Temp\cc1yIsQR.s 			page 27


 446:.\main.c      ****     else{
 447:.\main.c      ****         changeRightWheelSpeed(correction);
 1022              		.loc 1 447 0
 1023 0044 386D     		ldr	r0, [r7, #80]
 1024 0046 FFF7FEFF 		bl	changeRightWheelSpeed
 1025              	.L48:
 448:.\main.c      ****     }
 449:.\main.c      ****     
 450:.\main.c      ****     return;
 1026              		.loc 1 450 0 discriminator 3
 1027 004a 00BF     		nop
 1028              	.L43:
 451:.\main.c      **** }
 1029              		.loc 1 451 0
 1030 004c 5837     		adds	r7, r7, #88
 1031              		.cfi_def_cfa_offset 8
 1032 004e BD46     		mov	sp, r7
 1033              		.cfi_def_cfa_register 13
 1034              		@ sp needed
 1035 0050 80BD     		pop	{r7, pc}
 1036              		.cfi_endproc
 1037              	.LFE72:
 1038              		.size	correctSpeed, .-correctSpeed
 1039 0052 00BF     		.section	.text.setWheelDirection,"ax",%progbits
 1040              		.align	2
 1041              		.global	setWheelDirection
 1042              		.thumb
 1043              		.thumb_func
 1044              		.type	setWheelDirection, %function
 1045              	setWheelDirection:
 1046              	.LFB73:
 452:.\main.c      **** 
 453:.\main.c      **** /* Set wheel direction explicitly
 454:.\main.c      **** * Parameters are boolean, UNKNOWN can be passed
 455:.\main.c      **** * in if you wish the value to be unchanged
 456:.\main.c      **** */
 457:.\main.c      **** void setWheelDirection(int leftIsForward, int rightIsForward){
 1047              		.loc 1 457 0
 1048              		.cfi_startproc
 1049              		@ args = 0, pretend = 0, frame = 8
 1050              		@ frame_needed = 1, uses_anonymous_args = 0
 1051 0000 80B5     		push	{r7, lr}
 1052              		.cfi_def_cfa_offset 8
 1053              		.cfi_offset 7, -8
 1054              		.cfi_offset 14, -4
 1055 0002 82B0     		sub	sp, sp, #8
 1056              		.cfi_def_cfa_offset 16
 1057 0004 00AF     		add	r7, sp, #0
 1058              		.cfi_def_cfa_register 7
 1059 0006 7860     		str	r0, [r7, #4]
 1060 0008 3960     		str	r1, [r7]
 458:.\main.c      ****     INV1_Write(!leftIsForward);
 1061              		.loc 1 458 0
 1062 000a 7B68     		ldr	r3, [r7, #4]
 1063 000c 002B     		cmp	r3, #0
 1064 000e 0CBF     		ite	eq
 1065 0010 0123     		moveq	r3, #1
ARM GAS  C:\Users\keva419\AppData\Local\Temp\cc1yIsQR.s 			page 28


 1066 0012 0023     		movne	r3, #0
 1067 0014 DBB2     		uxtb	r3, r3
 1068 0016 1846     		mov	r0, r3
 1069 0018 FFF7FEFF 		bl	INV1_Write
 459:.\main.c      ****     INV2_Write(rightIsForward);
 1070              		.loc 1 459 0
 1071 001c 3B68     		ldr	r3, [r7]
 1072 001e DBB2     		uxtb	r3, r3
 1073 0020 1846     		mov	r0, r3
 1074 0022 FFF7FEFF 		bl	INV2_Write
 460:.\main.c      **** }
 1075              		.loc 1 460 0
 1076 0026 0837     		adds	r7, r7, #8
 1077              		.cfi_def_cfa_offset 8
 1078 0028 BD46     		mov	sp, r7
 1079              		.cfi_def_cfa_register 13
 1080              		@ sp needed
 1081 002a 80BD     		pop	{r7, pc}
 1082              		.cfi_endproc
 1083              	.LFE73:
 1084              		.size	setWheelDirection, .-setWheelDirection
 1085              		.section	.text.turnLeft,"ax",%progbits
 1086              		.align	2
 1087              		.global	turnLeft
 1088              		.thumb
 1089              		.thumb_func
 1090              		.type	turnLeft, %function
 1091              	turnLeft:
 1092              	.LFB74:
 461:.\main.c      **** 
 462:.\main.c      **** void turnLeft() {
 1093              		.loc 1 462 0
 1094              		.cfi_startproc
 1095              		@ args = 0, pretend = 0, frame = 0
 1096              		@ frame_needed = 1, uses_anonymous_args = 0
 1097 0000 80B5     		push	{r7, lr}
 1098              		.cfi_def_cfa_offset 8
 1099              		.cfi_offset 7, -8
 1100              		.cfi_offset 14, -4
 1101 0002 00AF     		add	r7, sp, #0
 1102              		.cfi_def_cfa_register 7
 463:.\main.c      ****     PWM_1_WriteCompare(0);
 1103              		.loc 1 463 0
 1104 0004 0020     		movs	r0, #0
 1105 0006 FFF7FEFF 		bl	PWM_1_WriteCompare
 464:.\main.c      ****     PWM_2_WriteCompare(TURN_SPEED);
 1106              		.loc 1 464 0
 1107 000a 4FF4E170 		mov	r0, #450
 1108 000e FFF7FEFF 		bl	PWM_2_WriteCompare
 465:.\main.c      ****     while (!sensor_readings[TOP_MID_SENSOR]) {
 1109              		.loc 1 465 0
 1110 0012 08E0     		b	.L52
 1111              	.L53:
 466:.\main.c      ****         if (adc_flag) {
 1112              		.loc 1 466 0
 1113 0014 084B     		ldr	r3, .L54
 1114 0016 1B68     		ldr	r3, [r3]
ARM GAS  C:\Users\keva419\AppData\Local\Temp\cc1yIsQR.s 			page 29


 1115 0018 002B     		cmp	r3, #0
 1116 001a 04D0     		beq	.L52
 467:.\main.c      ****             updateSensorValues();
 1117              		.loc 1 467 0
 1118 001c FFF7FEFF 		bl	updateSensorValues
 468:.\main.c      ****             adc_flag = FALSE;
 1119              		.loc 1 468 0
 1120 0020 054B     		ldr	r3, .L54
 1121 0022 0022     		movs	r2, #0
 1122 0024 1A60     		str	r2, [r3]
 1123              	.L52:
 465:.\main.c      ****         if (adc_flag) {
 1124              		.loc 1 465 0
 1125 0026 054B     		ldr	r3, .L54+4
 1126 0028 5B78     		ldrb	r3, [r3, #1]	@ zero_extendqisi2
 1127 002a 002B     		cmp	r3, #0
 1128 002c F2D0     		beq	.L53
 469:.\main.c      ****         }
 470:.\main.c      ****     }
 471:.\main.c      ****     PWM_1_WriteCompare(TURN_SPEED);
 1129              		.loc 1 471 0
 1130 002e 4FF4E170 		mov	r0, #450
 1131 0032 FFF7FEFF 		bl	PWM_1_WriteCompare
 472:.\main.c      **** }
 1132              		.loc 1 472 0
 1133 0036 80BD     		pop	{r7, pc}
 1134              	.L55:
 1135              		.align	2
 1136              	.L54:
 1137 0038 00000000 		.word	adc_flag
 1138 003c 00000000 		.word	sensor_readings
 1139              		.cfi_endproc
 1140              	.LFE74:
 1141              		.size	turnLeft, .-turnLeft
 1142              		.section	.text.turnRight,"ax",%progbits
 1143              		.align	2
 1144              		.global	turnRight
 1145              		.thumb
 1146              		.thumb_func
 1147              		.type	turnRight, %function
 1148              	turnRight:
 1149              	.LFB75:
 473:.\main.c      **** 
 474:.\main.c      **** void turnRight() {
 1150              		.loc 1 474 0
 1151              		.cfi_startproc
 1152              		@ args = 0, pretend = 0, frame = 0
 1153              		@ frame_needed = 1, uses_anonymous_args = 0
 1154 0000 80B5     		push	{r7, lr}
 1155              		.cfi_def_cfa_offset 8
 1156              		.cfi_offset 7, -8
 1157              		.cfi_offset 14, -4
 1158 0002 00AF     		add	r7, sp, #0
 1159              		.cfi_def_cfa_register 7
 475:.\main.c      ****     PWM_1_WriteCompare(TURN_SPEED);
 1160              		.loc 1 475 0
 1161 0004 4FF4E170 		mov	r0, #450
ARM GAS  C:\Users\keva419\AppData\Local\Temp\cc1yIsQR.s 			page 30


 1162 0008 FFF7FEFF 		bl	PWM_1_WriteCompare
 476:.\main.c      ****     PWM_2_WriteCompare(0);
 1163              		.loc 1 476 0
 1164 000c 0020     		movs	r0, #0
 1165 000e FFF7FEFF 		bl	PWM_2_WriteCompare
 477:.\main.c      ****     while (!sensor_readings[TOP_MID_SENSOR]) {
 1166              		.loc 1 477 0
 1167 0012 08E0     		b	.L57
 1168              	.L58:
 478:.\main.c      ****         if (adc_flag) {
 1169              		.loc 1 478 0
 1170 0014 084B     		ldr	r3, .L59
 1171 0016 1B68     		ldr	r3, [r3]
 1172 0018 002B     		cmp	r3, #0
 1173 001a 04D0     		beq	.L57
 479:.\main.c      ****             updateSensorValues();
 1174              		.loc 1 479 0
 1175 001c FFF7FEFF 		bl	updateSensorValues
 480:.\main.c      ****             adc_flag = FALSE;
 1176              		.loc 1 480 0
 1177 0020 054B     		ldr	r3, .L59
 1178 0022 0022     		movs	r2, #0
 1179 0024 1A60     		str	r2, [r3]
 1180              	.L57:
 477:.\main.c      ****         if (adc_flag) {
 1181              		.loc 1 477 0
 1182 0026 054B     		ldr	r3, .L59+4
 1183 0028 5B78     		ldrb	r3, [r3, #1]	@ zero_extendqisi2
 1184 002a 002B     		cmp	r3, #0
 1185 002c F2D0     		beq	.L58
 481:.\main.c      ****         }
 482:.\main.c      ****     }
 483:.\main.c      ****     PWM_2_WriteCompare(TURN_SPEED);
 1186              		.loc 1 483 0
 1187 002e 4FF4E170 		mov	r0, #450
 1188 0032 FFF7FEFF 		bl	PWM_2_WriteCompare
 484:.\main.c      **** }
 1189              		.loc 1 484 0
 1190 0036 80BD     		pop	{r7, pc}
 1191              	.L60:
 1192              		.align	2
 1193              	.L59:
 1194 0038 00000000 		.word	adc_flag
 1195 003c 00000000 		.word	sensor_readings
 1196              		.cfi_endproc
 1197              	.LFE75:
 1198              		.size	turnRight, .-turnRight
 1199              		.section	.text.sharpTurnLeft,"ax",%progbits
 1200              		.align	2
 1201              		.global	sharpTurnLeft
 1202              		.thumb
 1203              		.thumb_func
 1204              		.type	sharpTurnLeft, %function
 1205              	sharpTurnLeft:
 1206              	.LFB76:
 485:.\main.c      **** 
 486:.\main.c      **** void sharpTurnLeft(int *right_wheel_count, int *left_wheel_count) {
ARM GAS  C:\Users\keva419\AppData\Local\Temp\cc1yIsQR.s 			page 31


 1207              		.loc 1 486 0
 1208              		.cfi_startproc
 1209              		@ args = 0, pretend = 0, frame = 16
 1210              		@ frame_needed = 1, uses_anonymous_args = 0
 1211 0000 80B5     		push	{r7, lr}
 1212              		.cfi_def_cfa_offset 8
 1213              		.cfi_offset 7, -8
 1214              		.cfi_offset 14, -4
 1215 0002 84B0     		sub	sp, sp, #16
 1216              		.cfi_def_cfa_offset 24
 1217 0004 00AF     		add	r7, sp, #0
 1218              		.cfi_def_cfa_register 7
 1219 0006 7860     		str	r0, [r7, #4]
 1220 0008 3960     		str	r1, [r7]
 487:.\main.c      ****     int prevCountM1 = 0;
 1221              		.loc 1 487 0
 1222 000a 0023     		movs	r3, #0
 1223 000c FB60     		str	r3, [r7, #12]
 488:.\main.c      ****     int prevCountM2 = 0;
 1224              		.loc 1 488 0
 1225 000e 0023     		movs	r3, #0
 1226 0010 BB60     		str	r3, [r7, #8]
 489:.\main.c      ****     
 490:.\main.c      ****     // go until we reach the line
 491:.\main.c      ****     while (!sensor_readings[BOTTOM_LEFT_SENSOR]) {
 1227              		.loc 1 491 0
 1228 0012 45E0     		b	.L62
 1229              	.L66:
 492:.\main.c      ****         if (adc_flag) {
 1230              		.loc 1 492 0
 1231 0014 394B     		ldr	r3, .L69
 1232 0016 1B68     		ldr	r3, [r3]
 1233 0018 002B     		cmp	r3, #0
 1234 001a 04D0     		beq	.L63
 493:.\main.c      ****             updateSensorValues();
 1235              		.loc 1 493 0
 1236 001c FFF7FEFF 		bl	updateSensorValues
 494:.\main.c      ****             adc_flag = FALSE;
 1237              		.loc 1 494 0
 1238 0020 364B     		ldr	r3, .L69
 1239 0022 0022     		movs	r2, #0
 1240 0024 1A60     		str	r2, [r3]
 1241              	.L63:
 495:.\main.c      ****         }
 496:.\main.c      ****         
 497:.\main.c      ****          // New count values from encoder are ready
 498:.\main.c      ****         if (timer_flag){
 1242              		.loc 1 498 0
 1243 0026 364B     		ldr	r3, .L69+4
 1244 0028 1B68     		ldr	r3, [r3]
 1245 002a 002B     		cmp	r3, #0
 1246 002c 38D0     		beq	.L62
 499:.\main.c      ****             isr_TS_Disable();
 1247              		.loc 1 499 0
 1248 002e FFF7FEFF 		bl	isr_TS_Disable
 500:.\main.c      ****             
 501:.\main.c      ****             // Correct speed
ARM GAS  C:\Users\keva419\AppData\Local\Temp\cc1yIsQR.s 			page 32


 502:.\main.c      ****             correctSpeed(prevCountM1,countM1,*left_wheel_count,TRUE);
 1249              		.loc 1 502 0
 1250 0032 344B     		ldr	r3, .L69+8
 1251 0034 1A68     		ldr	r2, [r3]
 1252 0036 3B68     		ldr	r3, [r7]
 1253 0038 1B68     		ldr	r3, [r3]
 1254 003a F868     		ldr	r0, [r7, #12]
 1255 003c 1146     		mov	r1, r2
 1256 003e 1A46     		mov	r2, r3
 1257 0040 0123     		movs	r3, #1
 1258 0042 FFF7FEFF 		bl	correctSpeed
 503:.\main.c      ****             correctSpeed(prevCountM2,countM2,*right_wheel_count,FALSE);
 1259              		.loc 1 503 0
 1260 0046 304B     		ldr	r3, .L69+12
 1261 0048 1A68     		ldr	r2, [r3]
 1262 004a 7B68     		ldr	r3, [r7, #4]
 1263 004c 1B68     		ldr	r3, [r3]
 1264 004e B868     		ldr	r0, [r7, #8]
 1265 0050 1146     		mov	r1, r2
 1266 0052 1A46     		mov	r2, r3
 1267 0054 0023     		movs	r3, #0
 1268 0056 FFF7FEFF 		bl	correctSpeed
 504:.\main.c      ****             
 505:.\main.c      ****             *left_wheel_count -= SLOW_DOWN_SPEED;
 1269              		.loc 1 505 0
 1270 005a 3B68     		ldr	r3, [r7]
 1271 005c 1B68     		ldr	r3, [r3]
 1272 005e 5A1E     		subs	r2, r3, #1
 1273 0060 3B68     		ldr	r3, [r7]
 1274 0062 1A60     		str	r2, [r3]
 506:.\main.c      ****             *right_wheel_count -= SLOW_DOWN_SPEED;
 1275              		.loc 1 506 0
 1276 0064 7B68     		ldr	r3, [r7, #4]
 1277 0066 1B68     		ldr	r3, [r3]
 1278 0068 5A1E     		subs	r2, r3, #1
 1279 006a 7B68     		ldr	r3, [r7, #4]
 1280 006c 1A60     		str	r2, [r3]
 507:.\main.c      ****             if (*right_wheel_count < MIN_SPEED) {
 1281              		.loc 1 507 0
 1282 006e 7B68     		ldr	r3, [r7, #4]
 1283 0070 1B68     		ldr	r3, [r3]
 1284 0072 032B     		cmp	r3, #3
 1285 0074 02DC     		bgt	.L64
 508:.\main.c      ****                 *right_wheel_count = MIN_SPEED;
 1286              		.loc 1 508 0
 1287 0076 7B68     		ldr	r3, [r7, #4]
 1288 0078 0422     		movs	r2, #4
 1289 007a 1A60     		str	r2, [r3]
 1290              	.L64:
 509:.\main.c      ****             }
 510:.\main.c      ****             if (*left_wheel_count < MIN_SPEED) {
 1291              		.loc 1 510 0
 1292 007c 3B68     		ldr	r3, [r7]
 1293 007e 1B68     		ldr	r3, [r3]
 1294 0080 032B     		cmp	r3, #3
 1295 0082 02DC     		bgt	.L65
 511:.\main.c      ****                 *left_wheel_count = MIN_SPEED;
ARM GAS  C:\Users\keva419\AppData\Local\Temp\cc1yIsQR.s 			page 33


 1296              		.loc 1 511 0
 1297 0084 3B68     		ldr	r3, [r7]
 1298 0086 0422     		movs	r2, #4
 1299 0088 1A60     		str	r2, [r3]
 1300              	.L65:
 512:.\main.c      ****             }
 513:.\main.c      ****             
 514:.\main.c      ****             // Update previous values
 515:.\main.c      ****             prevCountM1 = countM1;
 1301              		.loc 1 515 0
 1302 008a 1E4B     		ldr	r3, .L69+8
 1303 008c 1B68     		ldr	r3, [r3]
 1304 008e FB60     		str	r3, [r7, #12]
 516:.\main.c      ****             prevCountM2 = countM2;
 1305              		.loc 1 516 0
 1306 0090 1D4B     		ldr	r3, .L69+12
 1307 0092 1B68     		ldr	r3, [r3]
 1308 0094 BB60     		str	r3, [r7, #8]
 517:.\main.c      ****             
 518:.\main.c      ****             // Reset flag
 519:.\main.c      ****             timer_flag = FALSE;
 1309              		.loc 1 519 0
 1310 0096 1A4B     		ldr	r3, .L69+4
 1311 0098 0022     		movs	r2, #0
 1312 009a 1A60     		str	r2, [r3]
 520:.\main.c      ****             
 521:.\main.c      ****             isr_TS_Enable();
 1313              		.loc 1 521 0
 1314 009c FFF7FEFF 		bl	isr_TS_Enable
 1315              	.L62:
 491:.\main.c      ****         if (adc_flag) {
 1316              		.loc 1 491 0
 1317 00a0 1A4B     		ldr	r3, .L69+16
 1318 00a2 DB78     		ldrb	r3, [r3, #3]	@ zero_extendqisi2
 1319 00a4 002B     		cmp	r3, #0
 1320 00a6 B5D0     		beq	.L66
 522:.\main.c      ****         }
 523:.\main.c      ****         
 524:.\main.c      ****     }
 525:.\main.c      ****     
 526:.\main.c      ****     // make the turn
 527:.\main.c      ****     setWheelDirection(FALSE, TRUE);
 1321              		.loc 1 527 0
 1322 00a8 0020     		movs	r0, #0
 1323 00aa 0121     		movs	r1, #1
 1324 00ac FFF7FEFF 		bl	setWheelDirection
 528:.\main.c      ****     PWM_1_WriteCompare(TURN_SPEED);
 1325              		.loc 1 528 0
 1326 00b0 4FF4E170 		mov	r0, #450
 1327 00b4 FFF7FEFF 		bl	PWM_1_WriteCompare
 529:.\main.c      ****     PWM_2_WriteCompare(TURN_SPEED);
 1328              		.loc 1 529 0
 1329 00b8 4FF4E170 		mov	r0, #450
 1330 00bc FFF7FEFF 		bl	PWM_2_WriteCompare
 530:.\main.c      ****     while (!sensor_readings[TOP_MID_SENSOR]) {
 1331              		.loc 1 530 0
 1332 00c0 08E0     		b	.L67
ARM GAS  C:\Users\keva419\AppData\Local\Temp\cc1yIsQR.s 			page 34


 1333              	.L68:
 531:.\main.c      ****         if (adc_flag) {
 1334              		.loc 1 531 0
 1335 00c2 0E4B     		ldr	r3, .L69
 1336 00c4 1B68     		ldr	r3, [r3]
 1337 00c6 002B     		cmp	r3, #0
 1338 00c8 04D0     		beq	.L67
 532:.\main.c      ****             updateSensorValues();
 1339              		.loc 1 532 0
 1340 00ca FFF7FEFF 		bl	updateSensorValues
 533:.\main.c      ****             adc_flag = FALSE;
 1341              		.loc 1 533 0
 1342 00ce 0B4B     		ldr	r3, .L69
 1343 00d0 0022     		movs	r2, #0
 1344 00d2 1A60     		str	r2, [r3]
 1345              	.L67:
 530:.\main.c      ****         if (adc_flag) {
 1346              		.loc 1 530 0
 1347 00d4 0D4B     		ldr	r3, .L69+16
 1348 00d6 5B78     		ldrb	r3, [r3, #1]	@ zero_extendqisi2
 1349 00d8 002B     		cmp	r3, #0
 1350 00da F2D0     		beq	.L68
 534:.\main.c      ****         }
 535:.\main.c      ****     }
 536:.\main.c      ****     setWheelDirection(TRUE, TRUE);
 1351              		.loc 1 536 0
 1352 00dc 0120     		movs	r0, #1
 1353 00de 0121     		movs	r1, #1
 1354 00e0 FFF7FEFF 		bl	setWheelDirection
 537:.\main.c      ****     PWM_1_WriteCompare(TURN_SPEED);
 1355              		.loc 1 537 0
 1356 00e4 4FF4E170 		mov	r0, #450
 1357 00e8 FFF7FEFF 		bl	PWM_1_WriteCompare
 538:.\main.c      ****     PWM_2_WriteCompare(TURN_SPEED);
 1358              		.loc 1 538 0
 1359 00ec 4FF4E170 		mov	r0, #450
 1360 00f0 FFF7FEFF 		bl	PWM_2_WriteCompare
 539:.\main.c      **** }
 1361              		.loc 1 539 0
 1362 00f4 1037     		adds	r7, r7, #16
 1363              		.cfi_def_cfa_offset 8
 1364 00f6 BD46     		mov	sp, r7
 1365              		.cfi_def_cfa_register 13
 1366              		@ sp needed
 1367 00f8 80BD     		pop	{r7, pc}
 1368              	.L70:
 1369 00fa 00BF     		.align	2
 1370              	.L69:
 1371 00fc 00000000 		.word	adc_flag
 1372 0100 00000000 		.word	timer_flag
 1373 0104 00000000 		.word	countM1
 1374 0108 00000000 		.word	countM2
 1375 010c 00000000 		.word	sensor_readings
 1376              		.cfi_endproc
 1377              	.LFE76:
 1378              		.size	sharpTurnLeft, .-sharpTurnLeft
 1379              		.section	.text.sharpTurnRight,"ax",%progbits
ARM GAS  C:\Users\keva419\AppData\Local\Temp\cc1yIsQR.s 			page 35


 1380              		.align	2
 1381              		.global	sharpTurnRight
 1382              		.thumb
 1383              		.thumb_func
 1384              		.type	sharpTurnRight, %function
 1385              	sharpTurnRight:
 1386              	.LFB77:
 540:.\main.c      **** 
 541:.\main.c      **** void sharpTurnRight(int *right_wheel_count, int *left_wheel_count) {
 1387              		.loc 1 541 0
 1388              		.cfi_startproc
 1389              		@ args = 0, pretend = 0, frame = 16
 1390              		@ frame_needed = 1, uses_anonymous_args = 0
 1391 0000 80B5     		push	{r7, lr}
 1392              		.cfi_def_cfa_offset 8
 1393              		.cfi_offset 7, -8
 1394              		.cfi_offset 14, -4
 1395 0002 84B0     		sub	sp, sp, #16
 1396              		.cfi_def_cfa_offset 24
 1397 0004 00AF     		add	r7, sp, #0
 1398              		.cfi_def_cfa_register 7
 1399 0006 7860     		str	r0, [r7, #4]
 1400 0008 3960     		str	r1, [r7]
 542:.\main.c      ****     int prevCountM1 = 0;
 1401              		.loc 1 542 0
 1402 000a 0023     		movs	r3, #0
 1403 000c FB60     		str	r3, [r7, #12]
 543:.\main.c      ****     int prevCountM2 = 0;
 1404              		.loc 1 543 0
 1405 000e 0023     		movs	r3, #0
 1406 0010 BB60     		str	r3, [r7, #8]
 544:.\main.c      ****     
 545:.\main.c      ****     // go until we reach the line
 546:.\main.c      ****     while (!sensor_readings[BOTTOM_RIGHT_SENSOR]) {
 1407              		.loc 1 546 0
 1408 0012 3CE0     		b	.L72
 1409              	.L75:
 547:.\main.c      ****         
 548:.\main.c      ****          // New count values from encoder are ready
 549:.\main.c      ****         if (timer_flag){
 1410              		.loc 1 549 0
 1411 0014 344B     		ldr	r3, .L78
 1412 0016 1B68     		ldr	r3, [r3]
 1413 0018 002B     		cmp	r3, #0
 1414 001a 38D0     		beq	.L72
 550:.\main.c      ****             isr_TS_Disable();
 1415              		.loc 1 550 0
 1416 001c FFF7FEFF 		bl	isr_TS_Disable
 551:.\main.c      ****             
 552:.\main.c      ****             // Correct speed
 553:.\main.c      ****             correctSpeed(prevCountM1,countM1,*left_wheel_count,TRUE);
 1417              		.loc 1 553 0
 1418 0020 324B     		ldr	r3, .L78+4
 1419 0022 1A68     		ldr	r2, [r3]
 1420 0024 3B68     		ldr	r3, [r7]
 1421 0026 1B68     		ldr	r3, [r3]
 1422 0028 F868     		ldr	r0, [r7, #12]
ARM GAS  C:\Users\keva419\AppData\Local\Temp\cc1yIsQR.s 			page 36


 1423 002a 1146     		mov	r1, r2
 1424 002c 1A46     		mov	r2, r3
 1425 002e 0123     		movs	r3, #1
 1426 0030 FFF7FEFF 		bl	correctSpeed
 554:.\main.c      ****             correctSpeed(prevCountM2,countM2,*right_wheel_count,FALSE);
 1427              		.loc 1 554 0
 1428 0034 2E4B     		ldr	r3, .L78+8
 1429 0036 1A68     		ldr	r2, [r3]
 1430 0038 7B68     		ldr	r3, [r7, #4]
 1431 003a 1B68     		ldr	r3, [r3]
 1432 003c B868     		ldr	r0, [r7, #8]
 1433 003e 1146     		mov	r1, r2
 1434 0040 1A46     		mov	r2, r3
 1435 0042 0023     		movs	r3, #0
 1436 0044 FFF7FEFF 		bl	correctSpeed
 555:.\main.c      ****             
 556:.\main.c      ****             *left_wheel_count -= SLOW_DOWN_SPEED;
 1437              		.loc 1 556 0
 1438 0048 3B68     		ldr	r3, [r7]
 1439 004a 1B68     		ldr	r3, [r3]
 1440 004c 5A1E     		subs	r2, r3, #1
 1441 004e 3B68     		ldr	r3, [r7]
 1442 0050 1A60     		str	r2, [r3]
 557:.\main.c      ****             *right_wheel_count -= SLOW_DOWN_SPEED;
 1443              		.loc 1 557 0
 1444 0052 7B68     		ldr	r3, [r7, #4]
 1445 0054 1B68     		ldr	r3, [r3]
 1446 0056 5A1E     		subs	r2, r3, #1
 1447 0058 7B68     		ldr	r3, [r7, #4]
 1448 005a 1A60     		str	r2, [r3]
 558:.\main.c      ****             if (*right_wheel_count < MIN_SPEED) {
 1449              		.loc 1 558 0
 1450 005c 7B68     		ldr	r3, [r7, #4]
 1451 005e 1B68     		ldr	r3, [r3]
 1452 0060 032B     		cmp	r3, #3
 1453 0062 02DC     		bgt	.L73
 559:.\main.c      ****                 *right_wheel_count = MIN_SPEED;
 1454              		.loc 1 559 0
 1455 0064 7B68     		ldr	r3, [r7, #4]
 1456 0066 0422     		movs	r2, #4
 1457 0068 1A60     		str	r2, [r3]
 1458              	.L73:
 560:.\main.c      ****             }
 561:.\main.c      ****             if (*left_wheel_count < MIN_SPEED) {
 1459              		.loc 1 561 0
 1460 006a 3B68     		ldr	r3, [r7]
 1461 006c 1B68     		ldr	r3, [r3]
 1462 006e 032B     		cmp	r3, #3
 1463 0070 02DC     		bgt	.L74
 562:.\main.c      ****                 *left_wheel_count = MIN_SPEED;
 1464              		.loc 1 562 0
 1465 0072 3B68     		ldr	r3, [r7]
 1466 0074 0422     		movs	r2, #4
 1467 0076 1A60     		str	r2, [r3]
 1468              	.L74:
 563:.\main.c      ****             }
 564:.\main.c      ****             
ARM GAS  C:\Users\keva419\AppData\Local\Temp\cc1yIsQR.s 			page 37


 565:.\main.c      ****             // Update previous values
 566:.\main.c      ****             prevCountM1 = countM1;
 1469              		.loc 1 566 0
 1470 0078 1C4B     		ldr	r3, .L78+4
 1471 007a 1B68     		ldr	r3, [r3]
 1472 007c FB60     		str	r3, [r7, #12]
 567:.\main.c      ****             prevCountM2 = countM2;
 1473              		.loc 1 567 0
 1474 007e 1C4B     		ldr	r3, .L78+8
 1475 0080 1B68     		ldr	r3, [r3]
 1476 0082 BB60     		str	r3, [r7, #8]
 568:.\main.c      ****             
 569:.\main.c      ****             // Reset flag
 570:.\main.c      ****             timer_flag = FALSE;
 1477              		.loc 1 570 0
 1478 0084 184B     		ldr	r3, .L78
 1479 0086 0022     		movs	r2, #0
 1480 0088 1A60     		str	r2, [r3]
 571:.\main.c      ****             
 572:.\main.c      ****             isr_TS_Enable();
 1481              		.loc 1 572 0
 1482 008a FFF7FEFF 		bl	isr_TS_Enable
 1483              	.L72:
 546:.\main.c      ****         
 1484              		.loc 1 546 0
 1485 008e 194B     		ldr	r3, .L78+12
 1486 0090 5B79     		ldrb	r3, [r3, #5]	@ zero_extendqisi2
 1487 0092 002B     		cmp	r3, #0
 1488 0094 BED0     		beq	.L75
 573:.\main.c      ****         }
 574:.\main.c      ****     }
 575:.\main.c      ****     
 576:.\main.c      ****     // make the turn
 577:.\main.c      ****     setWheelDirection(TRUE, FALSE);
 1489              		.loc 1 577 0
 1490 0096 0120     		movs	r0, #1
 1491 0098 0021     		movs	r1, #0
 1492 009a FFF7FEFF 		bl	setWheelDirection
 578:.\main.c      ****     PWM_1_WriteCompare(TURN_SPEED);
 1493              		.loc 1 578 0
 1494 009e 4FF4E170 		mov	r0, #450
 1495 00a2 FFF7FEFF 		bl	PWM_1_WriteCompare
 579:.\main.c      ****     PWM_2_WriteCompare(TURN_SPEED);
 1496              		.loc 1 579 0
 1497 00a6 4FF4E170 		mov	r0, #450
 1498 00aa FFF7FEFF 		bl	PWM_2_WriteCompare
 580:.\main.c      ****     while (!sensor_readings[TOP_MID_SENSOR]) {
 1499              		.loc 1 580 0
 1500 00ae 08E0     		b	.L76
 1501              	.L77:
 581:.\main.c      ****         if (adc_flag) {
 1502              		.loc 1 581 0
 1503 00b0 114B     		ldr	r3, .L78+16
 1504 00b2 1B68     		ldr	r3, [r3]
 1505 00b4 002B     		cmp	r3, #0
 1506 00b6 04D0     		beq	.L76
 582:.\main.c      ****             updateSensorValues();
ARM GAS  C:\Users\keva419\AppData\Local\Temp\cc1yIsQR.s 			page 38


 1507              		.loc 1 582 0
 1508 00b8 FFF7FEFF 		bl	updateSensorValues
 583:.\main.c      ****             adc_flag = FALSE;
 1509              		.loc 1 583 0
 1510 00bc 0E4B     		ldr	r3, .L78+16
 1511 00be 0022     		movs	r2, #0
 1512 00c0 1A60     		str	r2, [r3]
 1513              	.L76:
 580:.\main.c      ****         if (adc_flag) {
 1514              		.loc 1 580 0
 1515 00c2 0C4B     		ldr	r3, .L78+12
 1516 00c4 5B78     		ldrb	r3, [r3, #1]	@ zero_extendqisi2
 1517 00c6 002B     		cmp	r3, #0
 1518 00c8 F2D0     		beq	.L77
 584:.\main.c      ****         }
 585:.\main.c      ****     }
 586:.\main.c      ****     setWheelDirection(TRUE, TRUE);
 1519              		.loc 1 586 0
 1520 00ca 0120     		movs	r0, #1
 1521 00cc 0121     		movs	r1, #1
 1522 00ce FFF7FEFF 		bl	setWheelDirection
 587:.\main.c      ****     PWM_1_WriteCompare(TURN_SPEED);
 1523              		.loc 1 587 0
 1524 00d2 4FF4E170 		mov	r0, #450
 1525 00d6 FFF7FEFF 		bl	PWM_1_WriteCompare
 588:.\main.c      ****     PWM_2_WriteCompare(TURN_SPEED);
 1526              		.loc 1 588 0
 1527 00da 4FF4E170 		mov	r0, #450
 1528 00de FFF7FEFF 		bl	PWM_2_WriteCompare
 589:.\main.c      **** }
 1529              		.loc 1 589 0
 1530 00e2 1037     		adds	r7, r7, #16
 1531              		.cfi_def_cfa_offset 8
 1532 00e4 BD46     		mov	sp, r7
 1533              		.cfi_def_cfa_register 13
 1534              		@ sp needed
 1535 00e6 80BD     		pop	{r7, pc}
 1536              	.L79:
 1537              		.align	2
 1538              	.L78:
 1539 00e8 00000000 		.word	timer_flag
 1540 00ec 00000000 		.word	countM1
 1541 00f0 00000000 		.word	countM2
 1542 00f4 00000000 		.word	sensor_readings
 1543 00f8 00000000 		.word	adc_flag
 1544              		.cfi_endproc
 1545              	.LFE77:
 1546              		.size	sharpTurnRight, .-sharpTurnRight
 1547              		.section	.text.usbPutString,"ax",%progbits
 1548              		.align	2
 1549              		.global	usbPutString
 1550              		.thumb
 1551              		.thumb_func
 1552              		.type	usbPutString, %function
 1553              	usbPutString:
 1554              	.LFB78:
 590:.\main.c      **** //* ================== UNUSED FUNCTIONS ======================
ARM GAS  C:\Users\keva419\AppData\Local\Temp\cc1yIsQR.s 			page 39


 591:.\main.c      **** 
 592:.\main.c      **** /*
 593:.\main.c      **** * Function for performing a 90 degree turn
 594:.\main.c      **** * returns true once finished
 595:.\main.c      **** */
 596:.\main.c      **** //int8 performTurn(int isLeft){
 597:.\main.c      **** //    // Reset decoder measurements
 598:.\main.c      **** //    QuadDec_M1_SetCounter(0);
 599:.\main.c      **** //    QuadDec_M2_SetCounter(0);
 600:.\main.c      **** //    
 601:.\main.c      **** //    int M1_count, M2_count = 0;
 602:.\main.c      **** //    
 603:.\main.c      **** //    // Set PWMs to rotate
 604:.\main.c      **** //    PWM_1_WriteCompare(TURN_PWM_VAL);
 605:.\main.c      **** //    PWM_2_WriteCompare(TURN_PWM_VAL);
 606:.\main.c      **** //    
 607:.\main.c      **** //    // Set wheel direction for rotating on the spot
 608:.\main.c      **** //    if (isLeft){
 609:.\main.c      **** //        // left wheel moves backwarsd, right moves forwards
 610:.\main.c      **** //        setWheelDirection(FALSE, TRUE);}
 611:.\main.c      **** //    else {
 612:.\main.c      **** //        // right wheel moves forwards, left moves backwards
 613:.\main.c      **** //        setWheelDirection(TRUE, FALSE);
 614:.\main.c      **** //    }
 615:.\main.c      **** //    
 616:.\main.c      **** //    while (M1_count < TICKS_FOR_TURN || M2_count < TICKS_FOR_TURN) {
 617:.\main.c      **** //        M1_count = QuadDec_M1_GetCounter();
 618:.\main.c      **** //        M2_count = QuadDec_M2_GetCounter();
 619:.\main.c      **** //    }
 620:.\main.c      **** //    
 621:.\main.c      **** //    PWM_1_WriteCompare(0);
 622:.\main.c      **** //    PWM_2_WriteCompare(0);
 623:.\main.c      **** //    
 624:.\main.c      **** //    return TRUE;
 625:.\main.c      **** //}
 626:.\main.c      **** 
 627:.\main.c      **** 
 628:.\main.c      **** //* ========================================
 629:.\main.c      **** void usbPutString(char *s)
 630:.\main.c      **** {
 1555              		.loc 1 630 0
 1556              		.cfi_startproc
 1557              		@ args = 0, pretend = 0, frame = 8
 1558              		@ frame_needed = 1, uses_anonymous_args = 0
 1559              		@ link register save eliminated.
 1560 0000 80B4     		push	{r7}
 1561              		.cfi_def_cfa_offset 4
 1562              		.cfi_offset 7, -4
 1563 0002 83B0     		sub	sp, sp, #12
 1564              		.cfi_def_cfa_offset 16
 1565 0004 00AF     		add	r7, sp, #0
 1566              		.cfi_def_cfa_register 7
 1567 0006 7860     		str	r0, [r7, #4]
 631:.\main.c      **** // !! Assumes that *s is a string with allocated space >=64 chars     
 632:.\main.c      **** //  Since USB implementation retricts data packets to 64 chars, this function truncates the
 633:.\main.c      **** //  length to 62 char (63rd char is a '!')
 634:.\main.c      ****     
ARM GAS  C:\Users\keva419\AppData\Local\Temp\cc1yIsQR.s 			page 40


 635:.\main.c      **** #ifdef PUTTY
 636:.\main.c      ****     
 637:.\main.c      ****     while (USBUART_CDCIsReady() == 0){ };
 638:.\main.c      ****     USBUART_PutData((uint8 *)s, strlen(s));
 639:.\main.c      ****     
 640:.\main.c      **** #endif
 641:.\main.c      **** 
 642:.\main.c      ****     (void)s;
 643:.\main.c      **** 
 644:.\main.c      ****     return;
 1568              		.loc 1 644 0
 1569 0008 00BF     		nop
 645:.\main.c      **** }
 1570              		.loc 1 645 0
 1571 000a 0C37     		adds	r7, r7, #12
 1572              		.cfi_def_cfa_offset 4
 1573 000c BD46     		mov	sp, r7
 1574              		.cfi_def_cfa_register 13
 1575              		@ sp needed
 1576 000e 5DF8047B 		ldr	r7, [sp], #4
 1577              		.cfi_restore 7
 1578              		.cfi_def_cfa_offset 0
 1579 0012 7047     		bx	lr
 1580              		.cfi_endproc
 1581              	.LFE78:
 1582              		.size	usbPutString, .-usbPutString
 1583              		.text
 1584              	.Letext0:
 1585              		.file 2 "c:\\program files (x86)\\cypress\\psoc creator\\3.3\\psoc creator\\import\\gnu\\arm\\4.9.
 1586              		.file 3 "c:\\program files (x86)\\cypress\\psoc creator\\3.3\\psoc creator\\import\\gnu\\arm\\4.9.
 1587              		.file 4 "Generated_Source\\PSoC5/cytypes.h"
 1588              		.file 5 ".\\vars.h"
 1589              		.file 6 "Generated_Source\\PSoC5/core_cm3.h"